
ctarget:     file format elf64-x86-64


Disassembly of section .text:

0000000000421300 <_start>:
  421300:	31 ed                	xor    %ebp,%ebp
  421302:	49 89 d1             	mov    %rdx,%r9
  421305:	5e                   	pop    %rsi
  421306:	48 89 e2             	mov    %rsp,%rdx
  421309:	48 83 e4 f0          	and    $0xfffffffffffffff0,%rsp
  42130d:	50                   	push   %rax
  42130e:	54                   	push   %rsp
  42130f:	49 c7 c0 40 32 42 00 	mov    $0x423240,%r8
  421316:	48 c7 c1 d0 31 42 00 	mov    $0x4231d0,%rcx
  42131d:	48 c7 c7 c0 15 42 00 	mov    $0x4215c0,%rdi
  421324:	e8 e7 fa fd ff       	callq  400e10 <__libc_start_main@plt>
  421329:	f4                   	hlt    
  42132a:	66 0f 1f 44 00 00    	nopw   0x0(%rax,%rax,1)

0000000000421330 <deregister_tm_clones>:
  421330:	b8 b7 54 62 00       	mov    $0x6254b7,%eax
  421335:	55                   	push   %rbp
  421336:	48 2d b0 54 62 00    	sub    $0x6254b0,%rax
  42133c:	48 83 f8 0e          	cmp    $0xe,%rax
  421340:	48 89 e5             	mov    %rsp,%rbp
  421343:	77 02                	ja     421347 <deregister_tm_clones+0x17>
  421345:	5d                   	pop    %rbp
  421346:	c3                   	retq   
  421347:	b8 00 00 00 00       	mov    $0x0,%eax
  42134c:	48 85 c0             	test   %rax,%rax
  42134f:	74 f4                	je     421345 <deregister_tm_clones+0x15>
  421351:	5d                   	pop    %rbp
  421352:	bf b0 54 62 00       	mov    $0x6254b0,%edi
  421357:	ff e0                	jmpq   *%rax
  421359:	0f 1f 80 00 00 00 00 	nopl   0x0(%rax)

0000000000421360 <register_tm_clones>:
  421360:	b8 b0 54 62 00       	mov    $0x6254b0,%eax
  421365:	55                   	push   %rbp
  421366:	48 2d b0 54 62 00    	sub    $0x6254b0,%rax
  42136c:	48 c1 f8 03          	sar    $0x3,%rax
  421370:	48 89 e5             	mov    %rsp,%rbp
  421373:	48 89 c2             	mov    %rax,%rdx
  421376:	48 c1 ea 3f          	shr    $0x3f,%rdx
  42137a:	48 01 d0             	add    %rdx,%rax
  42137d:	48 d1 f8             	sar    %rax
  421380:	75 02                	jne    421384 <register_tm_clones+0x24>
  421382:	5d                   	pop    %rbp
  421383:	c3                   	retq   
  421384:	ba 00 00 00 00       	mov    $0x0,%edx
  421389:	48 85 d2             	test   %rdx,%rdx
  42138c:	74 f4                	je     421382 <register_tm_clones+0x22>
  42138e:	5d                   	pop    %rbp
  42138f:	48 89 c6             	mov    %rax,%rsi
  421392:	bf b0 54 62 00       	mov    $0x6254b0,%edi
  421397:	ff e2                	jmpq   *%rdx
  421399:	0f 1f 80 00 00 00 00 	nopl   0x0(%rax)

00000000004213a0 <__do_global_dtors_aux>:
  4213a0:	80 3d 31 41 20 00 00 	cmpb   $0x0,0x204131(%rip)        # 6254d8 <completed.6355>
  4213a7:	75 11                	jne    4213ba <__do_global_dtors_aux+0x1a>
  4213a9:	55                   	push   %rbp
  4213aa:	48 89 e5             	mov    %rsp,%rbp
  4213ad:	e8 7e ff ff ff       	callq  421330 <deregister_tm_clones>
  4213b2:	5d                   	pop    %rbp
  4213b3:	c6 05 1e 41 20 00 01 	movb   $0x1,0x20411e(%rip)        # 6254d8 <completed.6355>
  4213ba:	f3 c3                	repz retq 
  4213bc:	0f 1f 40 00          	nopl   0x0(%rax)

00000000004213c0 <frame_dummy>:
  4213c0:	48 83 3d 48 3a 20 00 	cmpq   $0x0,0x203a48(%rip)        # 624e10 <__JCR_END__>
  4213c7:	00 
  4213c8:	74 1e                	je     4213e8 <frame_dummy+0x28>
  4213ca:	b8 00 00 00 00       	mov    $0x0,%eax
  4213cf:	48 85 c0             	test   %rax,%rax
  4213d2:	74 14                	je     4213e8 <frame_dummy+0x28>
  4213d4:	55                   	push   %rbp
  4213d5:	bf 10 4e 62 00       	mov    $0x624e10,%edi
  4213da:	48 89 e5             	mov    %rsp,%rbp
  4213dd:	ff d0                	callq  *%rax
  4213df:	5d                   	pop    %rbp
  4213e0:	e9 7b ff ff ff       	jmpq   421360 <register_tm_clones>
  4213e5:	0f 1f 00             	nopl   (%rax)
  4213e8:	e9 73 ff ff ff       	jmpq   421360 <register_tm_clones>
  4213ed:	0f 1f 00             	nopl   (%rax)

00000000004213f0 <usage>:
  4213f0:	48 83 ec 08          	sub    $0x8,%rsp
  4213f4:	48 89 fe             	mov    %rdi,%rsi
  4213f7:	83 3d 0a 41 20 00 00 	cmpl   $0x0,0x20410a(%rip)        # 625508 <is_checker>
  4213fe:	74 39                	je     421439 <usage+0x49>
  421400:	bf 60 32 42 00       	mov    $0x423260,%edi
  421405:	b8 00 00 00 00       	mov    $0x0,%eax
  42140a:	e8 41 f9 fd ff       	callq  400d50 <printf@plt>
  42140f:	bf 98 32 42 00       	mov    $0x423298,%edi
  421414:	e8 77 f9 fd ff       	callq  400d90 <puts@plt>
  421419:	bf 10 34 42 00       	mov    $0x423410,%edi
  42141e:	e8 6d f9 fd ff       	callq  400d90 <puts@plt>
  421423:	bf c0 32 42 00       	mov    $0x4232c0,%edi
  421428:	e8 63 f9 fd ff       	callq  400d90 <puts@plt>
  42142d:	bf 2a 34 42 00       	mov    $0x42342a,%edi
  421432:	e8 59 f9 fd ff       	callq  400d90 <puts@plt>
  421437:	eb 2d                	jmp    421466 <usage+0x76>
  421439:	bf 46 34 42 00       	mov    $0x423446,%edi
  42143e:	b8 00 00 00 00       	mov    $0x0,%eax
  421443:	e8 08 f9 fd ff       	callq  400d50 <printf@plt>
  421448:	bf e8 32 42 00       	mov    $0x4232e8,%edi
  42144d:	e8 3e f9 fd ff       	callq  400d90 <puts@plt>
  421452:	bf 10 33 42 00       	mov    $0x423310,%edi
  421457:	e8 34 f9 fd ff       	callq  400d90 <puts@plt>
  42145c:	bf 64 34 42 00       	mov    $0x423464,%edi
  421461:	e8 2a f9 fd ff       	callq  400d90 <puts@plt>
  421466:	bf 00 00 00 00       	mov    $0x0,%edi
  42146b:	e8 40 f9 fd ff       	callq  400db0 <exit@plt>

0000000000421470 <initialize_target>:
  421470:	55                   	push   %rbp
  421471:	53                   	push   %rbx
  421472:	48 81 ec 08 21 00 00 	sub    $0x2108,%rsp
  421479:	89 f5                	mov    %esi,%ebp
  42147b:	89 3d 77 40 20 00    	mov    %edi,0x204077(%rip)        # 6254f8 <check_level>
  421481:	8b 3d e1 3c 20 00    	mov    0x203ce1(%rip),%edi        # 625168 <target_id>
  421487:	e8 c2 1a 00 00       	callq  422f4e <gencookie>
  42148c:	89 05 72 40 20 00    	mov    %eax,0x204072(%rip)        # 625504 <cookie>
  421492:	89 c7                	mov    %eax,%edi
  421494:	e8 b5 1a 00 00       	callq  422f4e <gencookie>
  421499:	89 05 61 40 20 00    	mov    %eax,0x204061(%rip)        # 625500 <authkey>
  42149f:	8b 05 c3 3c 20 00    	mov    0x203cc3(%rip),%eax        # 625168 <target_id>
  4214a5:	8d 78 01             	lea    0x1(%rax),%edi
  4214a8:	e8 73 f9 fd ff       	callq  400e20 <srandom@plt>
  4214ad:	e8 6e fa fd ff       	callq  400f20 <random@plt>
  4214b2:	89 c7                	mov    %eax,%edi
  4214b4:	e8 ca 02 00 00       	callq  421783 <scramble>
  4214b9:	89 c3                	mov    %eax,%ebx
  4214bb:	bf 00 00 00 00       	mov    $0x0,%edi
  4214c0:	e8 bb fa fd ff       	callq  400f80 <time@plt>
  4214c5:	89 c7                	mov    %eax,%edi
  4214c7:	e8 54 f9 fd ff       	callq  400e20 <srandom@plt>
  4214cc:	85 ed                	test   %ebp,%ebp
  4214ce:	74 07                	je     4214d7 <initialize_target+0x67>
  4214d0:	e8 4b fa fd ff       	callq  400f20 <random@plt>
  4214d5:	eb 05                	jmp    4214dc <initialize_target+0x6c>
  4214d7:	b8 00 00 00 00       	mov    $0x0,%eax
  4214dc:	01 c3                	add    %eax,%ebx
  4214de:	0f b7 db             	movzwl %bx,%ebx
  4214e1:	8d 04 dd 00 01 00 00 	lea    0x100(,%rbx,8),%eax
  4214e8:	89 c0                	mov    %eax,%eax
  4214ea:	48 89 05 af 3f 20 00 	mov    %rax,0x203faf(%rip)        # 6254a0 <buf_offset>
  4214f1:	c6 05 30 4c 20 00 63 	movb   $0x63,0x204c30(%rip)        # 626128 <target_prefix>
  4214f8:	83 3d a9 3f 20 00 00 	cmpl   $0x0,0x203fa9(%rip)        # 6254a8 <notify>
  4214ff:	0f 84 b1 00 00 00    	je     4215b6 <initialize_target+0x146>
  421505:	83 3d fc 3f 20 00 00 	cmpl   $0x0,0x203ffc(%rip)        # 625508 <is_checker>
  42150c:	0f 85 a4 00 00 00    	jne    4215b6 <initialize_target+0x146>
  421512:	be 00 01 00 00       	mov    $0x100,%esi
  421517:	48 89 e7             	mov    %rsp,%rdi
  42151a:	e8 81 f9 fd ff       	callq  400ea0 <gethostname@plt>
  42151f:	85 c0                	test   %eax,%eax
  421521:	74 25                	je     421548 <initialize_target+0xd8>
  421523:	bf 40 33 42 00       	mov    $0x423340,%edi
  421528:	e8 63 f8 fd ff       	callq  400d90 <puts@plt>
  42152d:	bf 08 00 00 00       	mov    $0x8,%edi
  421532:	e8 79 f8 fd ff       	callq  400db0 <exit@plt>
  421537:	48 89 e6             	mov    %rsp,%rsi
  42153a:	e8 81 f8 fd ff       	callq  400dc0 <strcasecmp@plt>
  42153f:	85 c0                	test   %eax,%eax
  421541:	74 21                	je     421564 <initialize_target+0xf4>
  421543:	83 c3 01             	add    $0x1,%ebx
  421546:	eb 05                	jmp    42154d <initialize_target+0xdd>
  421548:	bb 00 00 00 00       	mov    $0x0,%ebx
  42154d:	48 63 c3             	movslq %ebx,%rax
  421550:	48 8b 3c c5 80 51 62 	mov    0x625180(,%rax,8),%rdi
  421557:	00 
  421558:	48 85 ff             	test   %rdi,%rdi
  42155b:	75 da                	jne    421537 <initialize_target+0xc7>
  42155d:	b8 00 00 00 00       	mov    $0x0,%eax
  421562:	eb 05                	jmp    421569 <initialize_target+0xf9>
  421564:	b8 01 00 00 00       	mov    $0x1,%eax
  421569:	85 c0                	test   %eax,%eax
  42156b:	75 17                	jne    421584 <initialize_target+0x114>
  42156d:	48 89 e6             	mov    %rsp,%rsi
  421570:	bf 78 33 42 00       	mov    $0x423378,%edi
  421575:	e8 d6 f7 fd ff       	callq  400d50 <printf@plt>
  42157a:	bf 08 00 00 00       	mov    $0x8,%edi
  42157f:	e8 2c f8 fd ff       	callq  400db0 <exit@plt>
  421584:	48 8d bc 24 00 01 00 	lea    0x100(%rsp),%rdi
  42158b:	00 
  42158c:	e8 54 17 00 00       	callq  422ce5 <init_driver>
  421591:	85 c0                	test   %eax,%eax
  421593:	79 21                	jns    4215b6 <initialize_target+0x146>
  421595:	48 8d b4 24 00 01 00 	lea    0x100(%rsp),%rsi
  42159c:	00 
  42159d:	bf b8 33 42 00       	mov    $0x4233b8,%edi
  4215a2:	b8 00 00 00 00       	mov    $0x0,%eax
  4215a7:	e8 a4 f7 fd ff       	callq  400d50 <printf@plt>
  4215ac:	bf 08 00 00 00       	mov    $0x8,%edi
  4215b1:	e8 fa f7 fd ff       	callq  400db0 <exit@plt>
  4215b6:	48 81 c4 08 21 00 00 	add    $0x2108,%rsp
  4215bd:	5b                   	pop    %rbx
  4215be:	5d                   	pop    %rbp
  4215bf:	c3                   	retq   

00000000004215c0 <main>:
  4215c0:	41 56                	push   %r14
  4215c2:	41 55                	push   %r13
  4215c4:	41 54                	push   %r12
  4215c6:	55                   	push   %rbp
  4215c7:	53                   	push   %rbx
  4215c8:	41 89 fc             	mov    %edi,%r12d
  4215cb:	48 89 f3             	mov    %rsi,%rbx
  4215ce:	be f1 20 42 00       	mov    $0x4220f1,%esi
  4215d3:	bf 0b 00 00 00       	mov    $0xb,%edi
  4215d8:	e8 d3 f8 fd ff       	callq  400eb0 <signal@plt>
  4215dd:	be a3 20 42 00       	mov    $0x4220a3,%esi
  4215e2:	bf 07 00 00 00       	mov    $0x7,%edi
  4215e7:	e8 c4 f8 fd ff       	callq  400eb0 <signal@plt>
  4215ec:	be 3f 21 42 00       	mov    $0x42213f,%esi
  4215f1:	bf 04 00 00 00       	mov    $0x4,%edi
  4215f6:	e8 b5 f8 fd ff       	callq  400eb0 <signal@plt>
  4215fb:	83 3d 06 3f 20 00 00 	cmpl   $0x0,0x203f06(%rip)        # 625508 <is_checker>
  421602:	74 20                	je     421624 <main+0x64>
  421604:	be 8d 21 42 00       	mov    $0x42218d,%esi
  421609:	bf 0e 00 00 00       	mov    $0xe,%edi
  42160e:	e8 9d f8 fd ff       	callq  400eb0 <signal@plt>
  421613:	bf 05 00 00 00       	mov    $0x5,%edi
  421618:	e8 b3 f8 fd ff       	callq  400ed0 <alarm@plt>
  42161d:	bd 82 34 42 00       	mov    $0x423482,%ebp
  421622:	eb 05                	jmp    421629 <main+0x69>
  421624:	bd 7d 34 42 00       	mov    $0x42347d,%ebp
  421629:	48 8b 05 90 3e 20 00 	mov    0x203e90(%rip),%rax        # 6254c0 <stdin@@GLIBC_2.2.5>
  421630:	48 89 05 b9 3e 20 00 	mov    %rax,0x203eb9(%rip)        # 6254f0 <infile>
  421637:	41 bd 00 00 00 00    	mov    $0x0,%r13d
  42163d:	41 be 00 00 00 00    	mov    $0x0,%r14d
  421643:	e9 b9 00 00 00       	jmpq   421701 <main+0x141>
  421648:	83 e8 61             	sub    $0x61,%eax
  42164b:	3c 10                	cmp    $0x10,%al
  42164d:	0f 87 93 00 00 00    	ja     4216e6 <main+0x126>
  421653:	0f b6 c0             	movzbl %al,%eax
  421656:	ff 24 c5 c8 34 42 00 	jmpq   *0x4234c8(,%rax,8)
  42165d:	48 8b 3b             	mov    (%rbx),%rdi
  421660:	e8 8b fd ff ff       	callq  4213f0 <usage>
  421665:	be 9d 38 42 00       	mov    $0x42389d,%esi
  42166a:	48 8b 3d 57 3e 20 00 	mov    0x203e57(%rip),%rdi        # 6254c8 <optarg@@GLIBC_2.2.5>
  421671:	e8 8a f7 fd ff       	callq  400e00 <fopen@plt>
  421676:	48 89 05 73 3e 20 00 	mov    %rax,0x203e73(%rip)        # 6254f0 <infile>
  42167d:	48 85 c0             	test   %rax,%rax
  421680:	75 7f                	jne    421701 <main+0x141>
  421682:	48 8b 15 3f 3e 20 00 	mov    0x203e3f(%rip),%rdx        # 6254c8 <optarg@@GLIBC_2.2.5>
  421689:	be 8a 34 42 00       	mov    $0x42348a,%esi
  42168e:	48 8b 3d 3b 3e 20 00 	mov    0x203e3b(%rip),%rdi        # 6254d0 <stderr@@GLIBC_2.2.5>
  421695:	e8 96 f8 fd ff       	callq  400f30 <fprintf@plt>
  42169a:	b8 01 00 00 00       	mov    $0x1,%eax
  42169f:	e9 d6 00 00 00       	jmpq   42177a <main+0x1ba>
  4216a4:	ba 10 00 00 00       	mov    $0x10,%edx
  4216a9:	be 00 00 00 00       	mov    $0x0,%esi
  4216ae:	48 8b 3d 13 3e 20 00 	mov    0x203e13(%rip),%rdi        # 6254c8 <optarg@@GLIBC_2.2.5>
  4216b5:	e8 96 f8 fd ff       	callq  400f50 <strtoul@plt>
  4216ba:	41 89 c6             	mov    %eax,%r14d
  4216bd:	eb 42                	jmp    421701 <main+0x141>
  4216bf:	ba 0a 00 00 00       	mov    $0xa,%edx
  4216c4:	be 00 00 00 00       	mov    $0x0,%esi
  4216c9:	48 8b 3d f8 3d 20 00 	mov    0x203df8(%rip),%rdi        # 6254c8 <optarg@@GLIBC_2.2.5>
  4216d0:	e8 ab f7 fd ff       	callq  400e80 <strtol@plt>
  4216d5:	41 89 c5             	mov    %eax,%r13d
  4216d8:	eb 27                	jmp    421701 <main+0x141>
  4216da:	c7 05 c4 3d 20 00 00 	movl   $0x0,0x203dc4(%rip)        # 6254a8 <notify>
  4216e1:	00 00 00 
  4216e4:	eb 1b                	jmp    421701 <main+0x141>
  4216e6:	40 0f be f6          	movsbl %sil,%esi
  4216ea:	bf a7 34 42 00       	mov    $0x4234a7,%edi
  4216ef:	b8 00 00 00 00       	mov    $0x0,%eax
  4216f4:	e8 57 f6 fd ff       	callq  400d50 <printf@plt>
  4216f9:	48 8b 3b             	mov    (%rbx),%rdi
  4216fc:	e8 ef fc ff ff       	callq  4213f0 <usage>
  421701:	48 89 ea             	mov    %rbp,%rdx
  421704:	48 89 de             	mov    %rbx,%rsi
  421707:	44 89 e7             	mov    %r12d,%edi
  42170a:	e8 c1 f6 fd ff       	callq  400dd0 <getopt@plt>
  42170f:	89 c6                	mov    %eax,%esi
  421711:	3c ff                	cmp    $0xff,%al
  421713:	0f 85 2f ff ff ff    	jne    421648 <main+0x88>
  421719:	be 00 00 00 00       	mov    $0x0,%esi
  42171e:	44 89 ef             	mov    %r13d,%edi
  421721:	e8 4a fd ff ff       	callq  421470 <initialize_target>
  421726:	83 3d db 3d 20 00 00 	cmpl   $0x0,0x203ddb(%rip)        # 625508 <is_checker>
  42172d:	74 25                	je     421754 <main+0x194>
  42172f:	44 3b 35 ca 3d 20 00 	cmp    0x203dca(%rip),%r14d        # 625500 <authkey>
  421736:	74 1c                	je     421754 <main+0x194>
  421738:	44 89 f6             	mov    %r14d,%esi
  42173b:	bf e0 33 42 00       	mov    $0x4233e0,%edi
  421740:	b8 00 00 00 00       	mov    $0x0,%eax
  421745:	e8 06 f6 fd ff       	callq  400d50 <printf@plt>
  42174a:	b8 00 00 00 00       	mov    $0x0,%eax
  42174f:	e8 57 06 00 00       	callq  421dab <check_fail>
  421754:	8b 35 aa 3d 20 00    	mov    0x203daa(%rip),%esi        # 625504 <cookie>
  42175a:	bf ba 34 42 00       	mov    $0x4234ba,%edi
  42175f:	b8 00 00 00 00       	mov    $0x0,%eax
  421764:	e8 e7 f5 fd ff       	callq  400d50 <printf@plt>
  421769:	48 8b 3d 30 3d 20 00 	mov    0x203d30(%rip),%rdi        # 6254a0 <buf_offset>
  421770:	e8 e7 0a 00 00       	callq  42225c <stable_launch>
  421775:	b8 00 00 00 00       	mov    $0x0,%eax
  42177a:	5b                   	pop    %rbx
  42177b:	5d                   	pop    %rbp
  42177c:	41 5c                	pop    %r12
  42177e:	41 5d                	pop    %r13
  421780:	41 5e                	pop    %r14
  421782:	c3                   	retq   

0000000000421783 <scramble>:
  421783:	b8 00 00 00 00       	mov    $0x0,%eax
  421788:	eb 11                	jmp    42179b <scramble+0x18>
  42178a:	69 c8 32 66 00 00    	imul   $0x6632,%eax,%ecx
  421790:	01 f9                	add    %edi,%ecx
  421792:	89 c2                	mov    %eax,%edx
  421794:	89 4c 94 d0          	mov    %ecx,-0x30(%rsp,%rdx,4)
  421798:	83 c0 01             	add    $0x1,%eax
  42179b:	83 f8 09             	cmp    $0x9,%eax
  42179e:	76 ea                	jbe    42178a <scramble+0x7>
  4217a0:	8b 44 24 f0          	mov    -0x10(%rsp),%eax
  4217a4:	69 c0 94 74 00 00    	imul   $0x7494,%eax,%eax
  4217aa:	89 44 24 f0          	mov    %eax,-0x10(%rsp)
  4217ae:	8b 44 24 f4          	mov    -0xc(%rsp),%eax
  4217b2:	69 c0 d0 20 00 00    	imul   $0x20d0,%eax,%eax
  4217b8:	89 44 24 f4          	mov    %eax,-0xc(%rsp)
  4217bc:	8b 44 24 d4          	mov    -0x2c(%rsp),%eax
  4217c0:	69 c0 8c 78 00 00    	imul   $0x788c,%eax,%eax
  4217c6:	89 44 24 d4          	mov    %eax,-0x2c(%rsp)
  4217ca:	8b 44 24 f0          	mov    -0x10(%rsp),%eax
  4217ce:	69 c0 39 d1 00 00    	imul   $0xd139,%eax,%eax
  4217d4:	89 44 24 f0          	mov    %eax,-0x10(%rsp)
  4217d8:	8b 44 24 d0          	mov    -0x30(%rsp),%eax
  4217dc:	69 c0 ce 45 00 00    	imul   $0x45ce,%eax,%eax
  4217e2:	89 44 24 d0          	mov    %eax,-0x30(%rsp)
  4217e6:	8b 44 24 f4          	mov    -0xc(%rsp),%eax
  4217ea:	69 c0 14 ee 00 00    	imul   $0xee14,%eax,%eax
  4217f0:	89 44 24 f4          	mov    %eax,-0xc(%rsp)
  4217f4:	8b 44 24 d0          	mov    -0x30(%rsp),%eax
  4217f8:	69 c0 8f 90 00 00    	imul   $0x908f,%eax,%eax
  4217fe:	89 44 24 d0          	mov    %eax,-0x30(%rsp)
  421802:	8b 44 24 e4          	mov    -0x1c(%rsp),%eax
  421806:	69 c0 96 f1 00 00    	imul   $0xf196,%eax,%eax
  42180c:	89 44 24 e4          	mov    %eax,-0x1c(%rsp)
  421810:	8b 44 24 e8          	mov    -0x18(%rsp),%eax
  421814:	69 c0 0d 3f 00 00    	imul   $0x3f0d,%eax,%eax
  42181a:	89 44 24 e8          	mov    %eax,-0x18(%rsp)
  42181e:	8b 44 24 d0          	mov    -0x30(%rsp),%eax
  421822:	69 c0 b6 8b 00 00    	imul   $0x8bb6,%eax,%eax
  421828:	89 44 24 d0          	mov    %eax,-0x30(%rsp)
  42182c:	8b 44 24 f4          	mov    -0xc(%rsp),%eax
  421830:	69 c0 78 86 00 00    	imul   $0x8678,%eax,%eax
  421836:	89 44 24 f4          	mov    %eax,-0xc(%rsp)
  42183a:	8b 44 24 d0          	mov    -0x30(%rsp),%eax
  42183e:	69 c0 ea 2f 00 00    	imul   $0x2fea,%eax,%eax
  421844:	89 44 24 d0          	mov    %eax,-0x30(%rsp)
  421848:	8b 44 24 d8          	mov    -0x28(%rsp),%eax
  42184c:	69 c0 d6 0b 00 00    	imul   $0xbd6,%eax,%eax
  421852:	89 44 24 d8          	mov    %eax,-0x28(%rsp)
  421856:	8b 44 24 e4          	mov    -0x1c(%rsp),%eax
  42185a:	69 c0 06 a6 00 00    	imul   $0xa606,%eax,%eax
  421860:	89 44 24 e4          	mov    %eax,-0x1c(%rsp)
  421864:	8b 44 24 e4          	mov    -0x1c(%rsp),%eax
  421868:	69 c0 c0 3c 00 00    	imul   $0x3cc0,%eax,%eax
  42186e:	89 44 24 e4          	mov    %eax,-0x1c(%rsp)
  421872:	8b 44 24 f0          	mov    -0x10(%rsp),%eax
  421876:	69 c0 9f 54 00 00    	imul   $0x549f,%eax,%eax
  42187c:	89 44 24 f0          	mov    %eax,-0x10(%rsp)
  421880:	8b 44 24 e4          	mov    -0x1c(%rsp),%eax
  421884:	69 c0 41 47 00 00    	imul   $0x4741,%eax,%eax
  42188a:	89 44 24 e4          	mov    %eax,-0x1c(%rsp)
  42188e:	8b 44 24 d4          	mov    -0x2c(%rsp),%eax
  421892:	69 c0 97 f7 00 00    	imul   $0xf797,%eax,%eax
  421898:	89 44 24 d4          	mov    %eax,-0x2c(%rsp)
  42189c:	8b 44 24 e0          	mov    -0x20(%rsp),%eax
  4218a0:	69 c0 7c 46 00 00    	imul   $0x467c,%eax,%eax
  4218a6:	89 44 24 e0          	mov    %eax,-0x20(%rsp)
  4218aa:	8b 44 24 e4          	mov    -0x1c(%rsp),%eax
  4218ae:	69 c0 0b 7a 00 00    	imul   $0x7a0b,%eax,%eax
  4218b4:	89 44 24 e4          	mov    %eax,-0x1c(%rsp)
  4218b8:	8b 44 24 d8          	mov    -0x28(%rsp),%eax
  4218bc:	69 c0 f2 f6 00 00    	imul   $0xf6f2,%eax,%eax
  4218c2:	89 44 24 d8          	mov    %eax,-0x28(%rsp)
  4218c6:	8b 44 24 d8          	mov    -0x28(%rsp),%eax
  4218ca:	69 c0 0a ab 00 00    	imul   $0xab0a,%eax,%eax
  4218d0:	89 44 24 d8          	mov    %eax,-0x28(%rsp)
  4218d4:	8b 44 24 d0          	mov    -0x30(%rsp),%eax
  4218d8:	69 c0 da 5a 00 00    	imul   $0x5ada,%eax,%eax
  4218de:	89 44 24 d0          	mov    %eax,-0x30(%rsp)
  4218e2:	8b 44 24 d4          	mov    -0x2c(%rsp),%eax
  4218e6:	69 c0 09 d3 00 00    	imul   $0xd309,%eax,%eax
  4218ec:	89 44 24 d4          	mov    %eax,-0x2c(%rsp)
  4218f0:	8b 44 24 ec          	mov    -0x14(%rsp),%eax
  4218f4:	69 c0 a6 a6 00 00    	imul   $0xa6a6,%eax,%eax
  4218fa:	89 44 24 ec          	mov    %eax,-0x14(%rsp)
  4218fe:	8b 44 24 ec          	mov    -0x14(%rsp),%eax
  421902:	69 c0 e7 89 00 00    	imul   $0x89e7,%eax,%eax
  421908:	89 44 24 ec          	mov    %eax,-0x14(%rsp)
  42190c:	8b 44 24 d0          	mov    -0x30(%rsp),%eax
  421910:	69 c0 f4 1c 00 00    	imul   $0x1cf4,%eax,%eax
  421916:	89 44 24 d0          	mov    %eax,-0x30(%rsp)
  42191a:	8b 44 24 e8          	mov    -0x18(%rsp),%eax
  42191e:	69 c0 23 d3 00 00    	imul   $0xd323,%eax,%eax
  421924:	89 44 24 e8          	mov    %eax,-0x18(%rsp)
  421928:	8b 44 24 f4          	mov    -0xc(%rsp),%eax
  42192c:	69 c0 d4 e4 00 00    	imul   $0xe4d4,%eax,%eax
  421932:	89 44 24 f4          	mov    %eax,-0xc(%rsp)
  421936:	8b 44 24 e8          	mov    -0x18(%rsp),%eax
  42193a:	69 c0 37 17 00 00    	imul   $0x1737,%eax,%eax
  421940:	89 44 24 e8          	mov    %eax,-0x18(%rsp)
  421944:	8b 44 24 d8          	mov    -0x28(%rsp),%eax
  421948:	69 c0 80 af 00 00    	imul   $0xaf80,%eax,%eax
  42194e:	89 44 24 d8          	mov    %eax,-0x28(%rsp)
  421952:	8b 44 24 ec          	mov    -0x14(%rsp),%eax
  421956:	69 c0 e8 d2 00 00    	imul   $0xd2e8,%eax,%eax
  42195c:	89 44 24 ec          	mov    %eax,-0x14(%rsp)
  421960:	8b 44 24 e4          	mov    -0x1c(%rsp),%eax
  421964:	69 c0 45 e1 00 00    	imul   $0xe145,%eax,%eax
  42196a:	89 44 24 e4          	mov    %eax,-0x1c(%rsp)
  42196e:	8b 44 24 f0          	mov    -0x10(%rsp),%eax
  421972:	69 c0 8e b6 00 00    	imul   $0xb68e,%eax,%eax
  421978:	89 44 24 f0          	mov    %eax,-0x10(%rsp)
  42197c:	8b 44 24 d8          	mov    -0x28(%rsp),%eax
  421980:	69 c0 50 93 00 00    	imul   $0x9350,%eax,%eax
  421986:	89 44 24 d8          	mov    %eax,-0x28(%rsp)
  42198a:	8b 44 24 e8          	mov    -0x18(%rsp),%eax
  42198e:	69 c0 0d b4 00 00    	imul   $0xb40d,%eax,%eax
  421994:	89 44 24 e8          	mov    %eax,-0x18(%rsp)
  421998:	8b 44 24 d4          	mov    -0x2c(%rsp),%eax
  42199c:	69 c0 ba 98 00 00    	imul   $0x98ba,%eax,%eax
  4219a2:	89 44 24 d4          	mov    %eax,-0x2c(%rsp)
  4219a6:	8b 44 24 d0          	mov    -0x30(%rsp),%eax
  4219aa:	69 c0 c4 11 00 00    	imul   $0x11c4,%eax,%eax
  4219b0:	89 44 24 d0          	mov    %eax,-0x30(%rsp)
  4219b4:	8b 44 24 ec          	mov    -0x14(%rsp),%eax
  4219b8:	69 c0 b7 fb 00 00    	imul   $0xfbb7,%eax,%eax
  4219be:	89 44 24 ec          	mov    %eax,-0x14(%rsp)
  4219c2:	8b 44 24 d4          	mov    -0x2c(%rsp),%eax
  4219c6:	69 c0 7b 8d 00 00    	imul   $0x8d7b,%eax,%eax
  4219cc:	89 44 24 d4          	mov    %eax,-0x2c(%rsp)
  4219d0:	8b 44 24 f0          	mov    -0x10(%rsp),%eax
  4219d4:	69 c0 8c 43 00 00    	imul   $0x438c,%eax,%eax
  4219da:	89 44 24 f0          	mov    %eax,-0x10(%rsp)
  4219de:	8b 44 24 e0          	mov    -0x20(%rsp),%eax
  4219e2:	69 c0 7c cf 00 00    	imul   $0xcf7c,%eax,%eax
  4219e8:	89 44 24 e0          	mov    %eax,-0x20(%rsp)
  4219ec:	8b 44 24 e4          	mov    -0x1c(%rsp),%eax
  4219f0:	69 c0 34 d1 00 00    	imul   $0xd134,%eax,%eax
  4219f6:	89 44 24 e4          	mov    %eax,-0x1c(%rsp)
  4219fa:	8b 44 24 e0          	mov    -0x20(%rsp),%eax
  4219fe:	69 c0 4a 89 00 00    	imul   $0x894a,%eax,%eax
  421a04:	89 44 24 e0          	mov    %eax,-0x20(%rsp)
  421a08:	8b 44 24 ec          	mov    -0x14(%rsp),%eax
  421a0c:	69 c0 c9 1b 00 00    	imul   $0x1bc9,%eax,%eax
  421a12:	89 44 24 ec          	mov    %eax,-0x14(%rsp)
  421a16:	8b 44 24 d4          	mov    -0x2c(%rsp),%eax
  421a1a:	69 c0 9c d7 00 00    	imul   $0xd79c,%eax,%eax
  421a20:	89 44 24 d4          	mov    %eax,-0x2c(%rsp)
  421a24:	8b 44 24 e8          	mov    -0x18(%rsp),%eax
  421a28:	69 c0 57 0c 00 00    	imul   $0xc57,%eax,%eax
  421a2e:	89 44 24 e8          	mov    %eax,-0x18(%rsp)
  421a32:	8b 44 24 f4          	mov    -0xc(%rsp),%eax
  421a36:	69 c0 0b c2 00 00    	imul   $0xc20b,%eax,%eax
  421a3c:	89 44 24 f4          	mov    %eax,-0xc(%rsp)
  421a40:	8b 44 24 dc          	mov    -0x24(%rsp),%eax
  421a44:	69 c0 04 75 00 00    	imul   $0x7504,%eax,%eax
  421a4a:	89 44 24 dc          	mov    %eax,-0x24(%rsp)
  421a4e:	8b 44 24 e0          	mov    -0x20(%rsp),%eax
  421a52:	69 c0 5f 15 00 00    	imul   $0x155f,%eax,%eax
  421a58:	89 44 24 e0          	mov    %eax,-0x20(%rsp)
  421a5c:	8b 44 24 d8          	mov    -0x28(%rsp),%eax
  421a60:	69 c0 33 a9 00 00    	imul   $0xa933,%eax,%eax
  421a66:	89 44 24 d8          	mov    %eax,-0x28(%rsp)
  421a6a:	8b 44 24 d4          	mov    -0x2c(%rsp),%eax
  421a6e:	69 c0 96 92 00 00    	imul   $0x9296,%eax,%eax
  421a74:	89 44 24 d4          	mov    %eax,-0x2c(%rsp)
  421a78:	8b 44 24 dc          	mov    -0x24(%rsp),%eax
  421a7c:	69 c0 83 28 00 00    	imul   $0x2883,%eax,%eax
  421a82:	89 44 24 dc          	mov    %eax,-0x24(%rsp)
  421a86:	8b 44 24 e8          	mov    -0x18(%rsp),%eax
  421a8a:	69 c0 81 35 00 00    	imul   $0x3581,%eax,%eax
  421a90:	89 44 24 e8          	mov    %eax,-0x18(%rsp)
  421a94:	8b 44 24 f0          	mov    -0x10(%rsp),%eax
  421a98:	69 c0 28 89 00 00    	imul   $0x8928,%eax,%eax
  421a9e:	89 44 24 f0          	mov    %eax,-0x10(%rsp)
  421aa2:	8b 44 24 f4          	mov    -0xc(%rsp),%eax
  421aa6:	69 c0 97 c6 00 00    	imul   $0xc697,%eax,%eax
  421aac:	89 44 24 f4          	mov    %eax,-0xc(%rsp)
  421ab0:	8b 44 24 e8          	mov    -0x18(%rsp),%eax
  421ab4:	69 c0 5f da 00 00    	imul   $0xda5f,%eax,%eax
  421aba:	89 44 24 e8          	mov    %eax,-0x18(%rsp)
  421abe:	8b 44 24 f4          	mov    -0xc(%rsp),%eax
  421ac2:	69 c0 35 2d 00 00    	imul   $0x2d35,%eax,%eax
  421ac8:	89 44 24 f4          	mov    %eax,-0xc(%rsp)
  421acc:	8b 44 24 d0          	mov    -0x30(%rsp),%eax
  421ad0:	69 c0 b3 38 00 00    	imul   $0x38b3,%eax,%eax
  421ad6:	89 44 24 d0          	mov    %eax,-0x30(%rsp)
  421ada:	8b 44 24 d0          	mov    -0x30(%rsp),%eax
  421ade:	69 c0 9c 61 00 00    	imul   $0x619c,%eax,%eax
  421ae4:	89 44 24 d0          	mov    %eax,-0x30(%rsp)
  421ae8:	8b 44 24 e8          	mov    -0x18(%rsp),%eax
  421aec:	69 c0 01 57 00 00    	imul   $0x5701,%eax,%eax
  421af2:	89 44 24 e8          	mov    %eax,-0x18(%rsp)
  421af6:	8b 44 24 f4          	mov    -0xc(%rsp),%eax
  421afa:	69 c0 c6 1f 00 00    	imul   $0x1fc6,%eax,%eax
  421b00:	89 44 24 f4          	mov    %eax,-0xc(%rsp)
  421b04:	8b 44 24 ec          	mov    -0x14(%rsp),%eax
  421b08:	69 c0 bd e3 00 00    	imul   $0xe3bd,%eax,%eax
  421b0e:	89 44 24 ec          	mov    %eax,-0x14(%rsp)
  421b12:	8b 44 24 f4          	mov    -0xc(%rsp),%eax
  421b16:	69 c0 f6 50 00 00    	imul   $0x50f6,%eax,%eax
  421b1c:	89 44 24 f4          	mov    %eax,-0xc(%rsp)
  421b20:	8b 44 24 f4          	mov    -0xc(%rsp),%eax
  421b24:	69 c0 6a 5a 00 00    	imul   $0x5a6a,%eax,%eax
  421b2a:	89 44 24 f4          	mov    %eax,-0xc(%rsp)
  421b2e:	8b 44 24 e8          	mov    -0x18(%rsp),%eax
  421b32:	69 c0 15 61 00 00    	imul   $0x6115,%eax,%eax
  421b38:	89 44 24 e8          	mov    %eax,-0x18(%rsp)
  421b3c:	8b 44 24 ec          	mov    -0x14(%rsp),%eax
  421b40:	69 c0 c1 2f 00 00    	imul   $0x2fc1,%eax,%eax
  421b46:	89 44 24 ec          	mov    %eax,-0x14(%rsp)
  421b4a:	8b 44 24 e8          	mov    -0x18(%rsp),%eax
  421b4e:	69 c0 8b 45 00 00    	imul   $0x458b,%eax,%eax
  421b54:	89 44 24 e8          	mov    %eax,-0x18(%rsp)
  421b58:	8b 44 24 dc          	mov    -0x24(%rsp),%eax
  421b5c:	69 c0 06 98 00 00    	imul   $0x9806,%eax,%eax
  421b62:	89 44 24 dc          	mov    %eax,-0x24(%rsp)
  421b66:	8b 44 24 dc          	mov    -0x24(%rsp),%eax
  421b6a:	69 c0 7e 7c 00 00    	imul   $0x7c7e,%eax,%eax
  421b70:	89 44 24 dc          	mov    %eax,-0x24(%rsp)
  421b74:	8b 44 24 d4          	mov    -0x2c(%rsp),%eax
  421b78:	69 c0 09 3e 00 00    	imul   $0x3e09,%eax,%eax
  421b7e:	89 44 24 d4          	mov    %eax,-0x2c(%rsp)
  421b82:	ba 00 00 00 00       	mov    $0x0,%edx
  421b87:	b8 00 00 00 00       	mov    $0x0,%eax
  421b8c:	eb 0b                	jmp    421b99 <scramble+0x416>
  421b8e:	89 d1                	mov    %edx,%ecx
  421b90:	8b 4c 8c d0          	mov    -0x30(%rsp,%rcx,4),%ecx
  421b94:	01 c8                	add    %ecx,%eax
  421b96:	83 c2 01             	add    $0x1,%edx
  421b99:	83 fa 09             	cmp    $0x9,%edx
  421b9c:	76 f0                	jbe    421b8e <scramble+0x40b>
  421b9e:	f3 c3                	repz retq 

0000000000421ba0 <getbuf>:
  421ba0:	48 83 ec 18          	sub    $0x18,%rsp
  421ba4:	48 89 e7             	mov    %rsp,%rdi
  421ba7:	e8 2e 02 00 00       	callq  421dda <Gets>
  421bac:	b8 01 00 00 00       	mov    $0x1,%eax
  421bb1:	48 83 c4 18          	add    $0x18,%rsp
  421bb5:	c3                   	retq   

0000000000421bb6 <touch1>:
  421bb6:	48 83 ec 08          	sub    $0x8,%rsp
  421bba:	c7 05 38 39 20 00 01 	movl   $0x1,0x203938(%rip)        # 6254fc <vlevel>
  421bc1:	00 00 00 
  421bc4:	bf ef 36 42 00       	mov    $0x4236ef,%edi
  421bc9:	e8 c2 f1 fd ff       	callq  400d90 <puts@plt>
  421bce:	bf 01 00 00 00       	mov    $0x1,%edi
  421bd3:	e8 f1 03 00 00       	callq  421fc9 <validate>
  421bd8:	bf 00 00 00 00       	mov    $0x0,%edi
  421bdd:	e8 ce f1 fd ff       	callq  400db0 <exit@plt>

0000000000421be2 <touch2>:
  421be2:	48 83 ec 08          	sub    $0x8,%rsp
  421be6:	89 fe                	mov    %edi,%esi
  421be8:	c7 05 0a 39 20 00 02 	movl   $0x2,0x20390a(%rip)        # 6254fc <vlevel>
  421bef:	00 00 00 
  421bf2:	3b 3d 0c 39 20 00    	cmp    0x20390c(%rip),%edi        # 625504 <cookie>
  421bf8:	75 1b                	jne    421c15 <touch2+0x33>
  421bfa:	bf 18 37 42 00       	mov    $0x423718,%edi
  421bff:	b8 00 00 00 00       	mov    $0x0,%eax
  421c04:	e8 47 f1 fd ff       	callq  400d50 <printf@plt>
  421c09:	bf 02 00 00 00       	mov    $0x2,%edi
  421c0e:	e8 b6 03 00 00       	callq  421fc9 <validate>
  421c13:	eb 19                	jmp    421c2e <touch2+0x4c>
  421c15:	bf 40 37 42 00       	mov    $0x423740,%edi
  421c1a:	b8 00 00 00 00       	mov    $0x0,%eax
  421c1f:	e8 2c f1 fd ff       	callq  400d50 <printf@plt>
  421c24:	bf 02 00 00 00       	mov    $0x2,%edi
  421c29:	e8 4d 04 00 00       	callq  42207b <fail>
  421c2e:	bf 00 00 00 00       	mov    $0x0,%edi
  421c33:	e8 78 f1 fd ff       	callq  400db0 <exit@plt>

0000000000421c38 <hexmatch>:
  421c38:	41 54                	push   %r12
  421c3a:	55                   	push   %rbp
  421c3b:	53                   	push   %rbx
  421c3c:	48 83 ec 70          	sub    $0x70,%rsp
  421c40:	41 89 fc             	mov    %edi,%r12d
  421c43:	48 89 f5             	mov    %rsi,%rbp
  421c46:	e8 d5 f2 fd ff       	callq  400f20 <random@plt>
  421c4b:	48 89 c1             	mov    %rax,%rcx
  421c4e:	48 ba 0b d7 a3 70 3d 	movabs $0xa3d70a3d70a3d70b,%rdx
  421c55:	0a d7 a3 
  421c58:	48 f7 ea             	imul   %rdx
  421c5b:	48 8d 04 0a          	lea    (%rdx,%rcx,1),%rax
  421c5f:	48 c1 f8 06          	sar    $0x6,%rax
  421c63:	48 89 ce             	mov    %rcx,%rsi
  421c66:	48 c1 fe 3f          	sar    $0x3f,%rsi
  421c6a:	48 29 f0             	sub    %rsi,%rax
  421c6d:	48 8d 04 80          	lea    (%rax,%rax,4),%rax
  421c71:	48 8d 04 80          	lea    (%rax,%rax,4),%rax
  421c75:	48 c1 e0 02          	shl    $0x2,%rax
  421c79:	48 29 c1             	sub    %rax,%rcx
  421c7c:	48 8d 1c 0c          	lea    (%rsp,%rcx,1),%rbx
  421c80:	44 89 e2             	mov    %r12d,%edx
  421c83:	be 0c 37 42 00       	mov    $0x42370c,%esi
  421c88:	48 89 df             	mov    %rbx,%rdi
  421c8b:	b8 00 00 00 00       	mov    $0x0,%eax
  421c90:	e8 cb f1 fd ff       	callq  400e60 <sprintf@plt>
  421c95:	ba 09 00 00 00       	mov    $0x9,%edx
  421c9a:	48 89 de             	mov    %rbx,%rsi
  421c9d:	48 89 ef             	mov    %rbp,%rdi
  421ca0:	e8 4b f1 fd ff       	callq  400df0 <strncmp@plt>
  421ca5:	85 c0                	test   %eax,%eax
  421ca7:	0f 94 c0             	sete   %al
  421caa:	0f b6 c0             	movzbl %al,%eax
  421cad:	48 83 c4 70          	add    $0x70,%rsp
  421cb1:	5b                   	pop    %rbx
  421cb2:	5d                   	pop    %rbp
  421cb3:	41 5c                	pop    %r12
  421cb5:	c3                   	retq   

0000000000421cb6 <touch3>:
  421cb6:	53                   	push   %rbx
  421cb7:	48 89 fb             	mov    %rdi,%rbx
  421cba:	c7 05 38 38 20 00 03 	movl   $0x3,0x203838(%rip)        # 6254fc <vlevel>
  421cc1:	00 00 00 
  421cc4:	48 89 fe             	mov    %rdi,%rsi
  421cc7:	8b 3d 37 38 20 00    	mov    0x203837(%rip),%edi        # 625504 <cookie>
  421ccd:	e8 66 ff ff ff       	callq  421c38 <hexmatch>
  421cd2:	85 c0                	test   %eax,%eax
  421cd4:	74 1e                	je     421cf4 <touch3+0x3e>
  421cd6:	48 89 de             	mov    %rbx,%rsi
  421cd9:	bf 68 37 42 00       	mov    $0x423768,%edi
  421cde:	b8 00 00 00 00       	mov    $0x0,%eax
  421ce3:	e8 68 f0 fd ff       	callq  400d50 <printf@plt>
  421ce8:	bf 03 00 00 00       	mov    $0x3,%edi
  421ced:	e8 d7 02 00 00       	callq  421fc9 <validate>
  421cf2:	eb 1c                	jmp    421d10 <touch3+0x5a>
  421cf4:	48 89 de             	mov    %rbx,%rsi
  421cf7:	bf 90 37 42 00       	mov    $0x423790,%edi
  421cfc:	b8 00 00 00 00       	mov    $0x0,%eax
  421d01:	e8 4a f0 fd ff       	callq  400d50 <printf@plt>
  421d06:	bf 03 00 00 00       	mov    $0x3,%edi
  421d0b:	e8 6b 03 00 00       	callq  42207b <fail>
  421d10:	bf 00 00 00 00       	mov    $0x0,%edi
  421d15:	e8 96 f0 fd ff       	callq  400db0 <exit@plt>

0000000000421d1a <test>:
  421d1a:	48 83 ec 08          	sub    $0x8,%rsp
  421d1e:	b8 00 00 00 00       	mov    $0x0,%eax
  421d23:	e8 78 fe ff ff       	callq  421ba0 <getbuf>
  421d28:	89 c6                	mov    %eax,%esi
  421d2a:	bf b8 37 42 00       	mov    $0x4237b8,%edi
  421d2f:	b8 00 00 00 00       	mov    $0x0,%eax
  421d34:	e8 17 f0 fd ff       	callq  400d50 <printf@plt>
  421d39:	48 83 c4 08          	add    $0x8,%rsp
  421d3d:	c3                   	retq   
  421d3e:	66 90                	xchg   %ax,%ax

0000000000421d40 <save_char>:
  421d40:	8b 05 de 43 20 00    	mov    0x2043de(%rip),%eax        # 626124 <gets_cnt>
  421d46:	3d ff 03 00 00       	cmp    $0x3ff,%eax
  421d4b:	7f 49                	jg     421d96 <save_char+0x56>
  421d4d:	8d 14 40             	lea    (%rax,%rax,2),%edx
  421d50:	89 f9                	mov    %edi,%ecx
  421d52:	c0 e9 04             	shr    $0x4,%cl
  421d55:	83 e1 0f             	and    $0xf,%ecx
  421d58:	0f b6 b1 e0 3a 42 00 	movzbl 0x423ae0(%rcx),%esi
  421d5f:	48 63 ca             	movslq %edx,%rcx
  421d62:	40 88 b1 20 55 62 00 	mov    %sil,0x625520(%rcx)
  421d69:	8d 4a 01             	lea    0x1(%rdx),%ecx
  421d6c:	83 e7 0f             	and    $0xf,%edi
  421d6f:	0f b6 b7 e0 3a 42 00 	movzbl 0x423ae0(%rdi),%esi
  421d76:	48 63 c9             	movslq %ecx,%rcx
  421d79:	40 88 b1 20 55 62 00 	mov    %sil,0x625520(%rcx)
  421d80:	83 c2 02             	add    $0x2,%edx
  421d83:	48 63 d2             	movslq %edx,%rdx
  421d86:	c6 82 20 55 62 00 20 	movb   $0x20,0x625520(%rdx)
  421d8d:	83 c0 01             	add    $0x1,%eax
  421d90:	89 05 8e 43 20 00    	mov    %eax,0x20438e(%rip)        # 626124 <gets_cnt>
  421d96:	f3 c3                	repz retq 

0000000000421d98 <save_term>:
  421d98:	8b 05 86 43 20 00    	mov    0x204386(%rip),%eax        # 626124 <gets_cnt>
  421d9e:	8d 04 40             	lea    (%rax,%rax,2),%eax
  421da1:	48 98                	cltq   
  421da3:	c6 80 20 55 62 00 00 	movb   $0x0,0x625520(%rax)
  421daa:	c3                   	retq   

0000000000421dab <check_fail>:
  421dab:	48 83 ec 08          	sub    $0x8,%rsp
  421daf:	0f be 35 72 43 20 00 	movsbl 0x204372(%rip),%esi        # 626128 <target_prefix>
  421db6:	b9 20 55 62 00       	mov    $0x625520,%ecx
  421dbb:	8b 15 37 37 20 00    	mov    0x203737(%rip),%edx        # 6254f8 <check_level>
  421dc1:	bf db 37 42 00       	mov    $0x4237db,%edi
  421dc6:	b8 00 00 00 00       	mov    $0x0,%eax
  421dcb:	e8 80 ef fd ff       	callq  400d50 <printf@plt>
  421dd0:	bf 01 00 00 00       	mov    $0x1,%edi
  421dd5:	e8 d6 ef fd ff       	callq  400db0 <exit@plt>

0000000000421dda <Gets>:
  421dda:	41 54                	push   %r12
  421ddc:	55                   	push   %rbp
  421ddd:	53                   	push   %rbx
  421dde:	49 89 fc             	mov    %rdi,%r12
  421de1:	c7 05 39 43 20 00 00 	movl   $0x0,0x204339(%rip)        # 626124 <gets_cnt>
  421de8:	00 00 00 
  421deb:	48 89 fb             	mov    %rdi,%rbx
  421dee:	eb 11                	jmp    421e01 <Gets+0x27>
  421df0:	48 8d 6b 01          	lea    0x1(%rbx),%rbp
  421df4:	88 03                	mov    %al,(%rbx)
  421df6:	0f b6 f8             	movzbl %al,%edi
  421df9:	e8 42 ff ff ff       	callq  421d40 <save_char>
  421dfe:	48 89 eb             	mov    %rbp,%rbx
  421e01:	48 8b 3d e8 36 20 00 	mov    0x2036e8(%rip),%rdi        # 6254f0 <infile>
  421e08:	e8 33 f0 fd ff       	callq  400e40 <_IO_getc@plt>
  421e0d:	83 f8 ff             	cmp    $0xffffffff,%eax
  421e10:	74 05                	je     421e17 <Gets+0x3d>
  421e12:	83 f8 0a             	cmp    $0xa,%eax
  421e15:	75 d9                	jne    421df0 <Gets+0x16>
  421e17:	c6 03 00             	movb   $0x0,(%rbx)
  421e1a:	b8 00 00 00 00       	mov    $0x0,%eax
  421e1f:	e8 74 ff ff ff       	callq  421d98 <save_term>
  421e24:	4c 89 e0             	mov    %r12,%rax
  421e27:	5b                   	pop    %rbx
  421e28:	5d                   	pop    %rbp
  421e29:	41 5c                	pop    %r12
  421e2b:	c3                   	retq   

0000000000421e2c <notify_server>:
  421e2c:	83 3d d5 36 20 00 00 	cmpl   $0x0,0x2036d5(%rip)        # 625508 <is_checker>
  421e33:	0f 85 8e 01 00 00    	jne    421fc7 <notify_server+0x19b>
  421e39:	53                   	push   %rbx
  421e3a:	48 81 ec 10 40 00 00 	sub    $0x4010,%rsp
  421e41:	89 fb                	mov    %edi,%ebx
  421e43:	8b 05 db 42 20 00    	mov    0x2042db(%rip),%eax        # 626124 <gets_cnt>
  421e49:	83 c0 64             	add    $0x64,%eax
  421e4c:	3d 00 20 00 00       	cmp    $0x2000,%eax
  421e51:	7e 19                	jle    421e6c <notify_server+0x40>
  421e53:	bf 10 39 42 00       	mov    $0x423910,%edi
  421e58:	b8 00 00 00 00       	mov    $0x0,%eax
  421e5d:	e8 ee ee fd ff       	callq  400d50 <printf@plt>
  421e62:	bf 01 00 00 00       	mov    $0x1,%edi
  421e67:	e8 44 ef fd ff       	callq  400db0 <exit@plt>
  421e6c:	44 0f be 0d b4 42 20 	movsbl 0x2042b4(%rip),%r9d        # 626128 <target_prefix>
  421e73:	00 
  421e74:	83 3d 2d 36 20 00 00 	cmpl   $0x0,0x20362d(%rip)        # 6254a8 <notify>
  421e7b:	74 09                	je     421e86 <notify_server+0x5a>
  421e7d:	44 8b 05 7c 36 20 00 	mov    0x20367c(%rip),%r8d        # 625500 <authkey>
  421e84:	eb 06                	jmp    421e8c <notify_server+0x60>
  421e86:	41 b8 ff ff ff ff    	mov    $0xffffffff,%r8d
  421e8c:	85 db                	test   %ebx,%ebx
  421e8e:	74 07                	je     421e97 <notify_server+0x6b>
  421e90:	b9 f1 37 42 00       	mov    $0x4237f1,%ecx
  421e95:	eb 05                	jmp    421e9c <notify_server+0x70>
  421e97:	b9 f6 37 42 00       	mov    $0x4237f6,%ecx
  421e9c:	48 c7 44 24 08 20 55 	movq   $0x625520,0x8(%rsp)
  421ea3:	62 00 
  421ea5:	89 34 24             	mov    %esi,(%rsp)
  421ea8:	8b 15 ba 32 20 00    	mov    0x2032ba(%rip),%edx        # 625168 <target_id>
  421eae:	be fb 37 42 00       	mov    $0x4237fb,%esi
  421eb3:	48 8d bc 24 10 20 00 	lea    0x2010(%rsp),%rdi
  421eba:	00 
  421ebb:	b8 00 00 00 00       	mov    $0x0,%eax
  421ec0:	e8 9b ef fd ff       	callq  400e60 <sprintf@plt>
  421ec5:	83 3d dc 35 20 00 00 	cmpl   $0x0,0x2035dc(%rip)        # 6254a8 <notify>
  421ecc:	74 78                	je     421f46 <notify_server+0x11a>
  421ece:	4c 8d 4c 24 10       	lea    0x10(%rsp),%r9
  421ed3:	41 b8 00 00 00 00    	mov    $0x0,%r8d
  421ed9:	48 8d 8c 24 10 20 00 	lea    0x2010(%rsp),%rcx
  421ee0:	00 
  421ee1:	48 8b 15 88 32 20 00 	mov    0x203288(%rip),%rdx        # 625170 <lab>
  421ee8:	48 8b 35 89 32 20 00 	mov    0x203289(%rip),%rsi        # 625178 <course>
  421eef:	48 8b 3d 6a 32 20 00 	mov    0x20326a(%rip),%rdi        # 625160 <user_id>
  421ef6:	e8 b3 0f 00 00       	callq  422eae <driver_post>
  421efb:	85 c0                	test   %eax,%eax
  421efd:	79 1e                	jns    421f1d <notify_server+0xf1>
  421eff:	48 8d 74 24 10       	lea    0x10(%rsp),%rsi
  421f04:	bf 17 38 42 00       	mov    $0x423817,%edi
  421f09:	b8 00 00 00 00       	mov    $0x0,%eax
  421f0e:	e8 3d ee fd ff       	callq  400d50 <printf@plt>
  421f13:	bf 01 00 00 00       	mov    $0x1,%edi
  421f18:	e8 93 ee fd ff       	callq  400db0 <exit@plt>
  421f1d:	85 db                	test   %ebx,%ebx
  421f1f:	74 19                	je     421f3a <notify_server+0x10e>
  421f21:	bf 40 39 42 00       	mov    $0x423940,%edi
  421f26:	e8 65 ee fd ff       	callq  400d90 <puts@plt>
  421f2b:	bf 23 38 42 00       	mov    $0x423823,%edi
  421f30:	e8 5b ee fd ff       	callq  400d90 <puts@plt>
  421f35:	e9 85 00 00 00       	jmpq   421fbf <notify_server+0x193>
  421f3a:	bf 2d 38 42 00       	mov    $0x42382d,%edi
  421f3f:	e8 4c ee fd ff       	callq  400d90 <puts@plt>
  421f44:	eb 79                	jmp    421fbf <notify_server+0x193>
  421f46:	85 db                	test   %ebx,%ebx
  421f48:	74 08                	je     421f52 <notify_server+0x126>
  421f4a:	be f1 37 42 00       	mov    $0x4237f1,%esi
  421f4f:	90                   	nop
  421f50:	eb 05                	jmp    421f57 <notify_server+0x12b>
  421f52:	be f6 37 42 00       	mov    $0x4237f6,%esi
  421f57:	bf 78 39 42 00       	mov    $0x423978,%edi
  421f5c:	b8 00 00 00 00       	mov    $0x0,%eax
  421f61:	e8 ea ed fd ff       	callq  400d50 <printf@plt>
  421f66:	48 8b 35 f3 31 20 00 	mov    0x2031f3(%rip),%rsi        # 625160 <user_id>
  421f6d:	bf 34 38 42 00       	mov    $0x423834,%edi
  421f72:	b8 00 00 00 00       	mov    $0x0,%eax
  421f77:	e8 d4 ed fd ff       	callq  400d50 <printf@plt>
  421f7c:	48 8b 35 f5 31 20 00 	mov    0x2031f5(%rip),%rsi        # 625178 <course>
  421f83:	bf 41 38 42 00       	mov    $0x423841,%edi
  421f88:	b8 00 00 00 00       	mov    $0x0,%eax
  421f8d:	e8 be ed fd ff       	callq  400d50 <printf@plt>
  421f92:	48 8b 35 d7 31 20 00 	mov    0x2031d7(%rip),%rsi        # 625170 <lab>
  421f99:	bf 4d 38 42 00       	mov    $0x42384d,%edi
  421f9e:	b8 00 00 00 00       	mov    $0x0,%eax
  421fa3:	e8 a8 ed fd ff       	callq  400d50 <printf@plt>
  421fa8:	48 8d b4 24 10 20 00 	lea    0x2010(%rsp),%rsi
  421faf:	00 
  421fb0:	bf 56 38 42 00       	mov    $0x423856,%edi
  421fb5:	b8 00 00 00 00       	mov    $0x0,%eax
  421fba:	e8 91 ed fd ff       	callq  400d50 <printf@plt>
  421fbf:	48 81 c4 10 40 00 00 	add    $0x4010,%rsp
  421fc6:	5b                   	pop    %rbx
  421fc7:	f3 c3                	repz retq 

0000000000421fc9 <validate>:
  421fc9:	53                   	push   %rbx
  421fca:	89 fb                	mov    %edi,%ebx
  421fcc:	83 3d 35 35 20 00 00 	cmpl   $0x0,0x203535(%rip)        # 625508 <is_checker>
  421fd3:	74 60                	je     422035 <validate+0x6c>
  421fd5:	39 3d 21 35 20 00    	cmp    %edi,0x203521(%rip)        # 6254fc <vlevel>
  421fdb:	74 14                	je     421ff1 <validate+0x28>
  421fdd:	bf 62 38 42 00       	mov    $0x423862,%edi
  421fe2:	e8 a9 ed fd ff       	callq  400d90 <puts@plt>
  421fe7:	b8 00 00 00 00       	mov    $0x0,%eax
  421fec:	e8 ba fd ff ff       	callq  421dab <check_fail>
  421ff1:	8b 35 01 35 20 00    	mov    0x203501(%rip),%esi        # 6254f8 <check_level>
  421ff7:	39 fe                	cmp    %edi,%esi
  421ff9:	74 1b                	je     422016 <validate+0x4d>
  421ffb:	89 fa                	mov    %edi,%edx
  421ffd:	bf a0 39 42 00       	mov    $0x4239a0,%edi
  422002:	b8 00 00 00 00       	mov    $0x0,%eax
  422007:	e8 44 ed fd ff       	callq  400d50 <printf@plt>
  42200c:	b8 00 00 00 00       	mov    $0x0,%eax
  422011:	e8 95 fd ff ff       	callq  421dab <check_fail>
  422016:	0f be 35 0b 41 20 00 	movsbl 0x20410b(%rip),%esi        # 626128 <target_prefix>
  42201d:	b9 20 55 62 00       	mov    $0x625520,%ecx
  422022:	89 fa                	mov    %edi,%edx
  422024:	bf 80 38 42 00       	mov    $0x423880,%edi
  422029:	b8 00 00 00 00       	mov    $0x0,%eax
  42202e:	e8 1d ed fd ff       	callq  400d50 <printf@plt>
  422033:	eb 44                	jmp    422079 <validate+0xb0>
  422035:	39 3d c1 34 20 00    	cmp    %edi,0x2034c1(%rip)        # 6254fc <vlevel>
  42203b:	74 18                	je     422055 <validate+0x8c>
  42203d:	bf 62 38 42 00       	mov    $0x423862,%edi
  422042:	e8 49 ed fd ff       	callq  400d90 <puts@plt>
  422047:	89 de                	mov    %ebx,%esi
  422049:	bf 00 00 00 00       	mov    $0x0,%edi
  42204e:	e8 d9 fd ff ff       	callq  421e2c <notify_server>
  422053:	eb 24                	jmp    422079 <validate+0xb0>
  422055:	0f be 15 cc 40 20 00 	movsbl 0x2040cc(%rip),%edx        # 626128 <target_prefix>
  42205c:	89 fe                	mov    %edi,%esi
  42205e:	bf c8 39 42 00       	mov    $0x4239c8,%edi
  422063:	b8 00 00 00 00       	mov    $0x0,%eax
  422068:	e8 e3 ec fd ff       	callq  400d50 <printf@plt>
  42206d:	89 de                	mov    %ebx,%esi
  42206f:	bf 01 00 00 00       	mov    $0x1,%edi
  422074:	e8 b3 fd ff ff       	callq  421e2c <notify_server>
  422079:	5b                   	pop    %rbx
  42207a:	c3                   	retq   

000000000042207b <fail>:
  42207b:	48 83 ec 08          	sub    $0x8,%rsp
  42207f:	83 3d 82 34 20 00 00 	cmpl   $0x0,0x203482(%rip)        # 625508 <is_checker>
  422086:	74 0a                	je     422092 <fail+0x17>
  422088:	b8 00 00 00 00       	mov    $0x0,%eax
  42208d:	e8 19 fd ff ff       	callq  421dab <check_fail>
  422092:	89 fe                	mov    %edi,%esi
  422094:	bf 00 00 00 00       	mov    $0x0,%edi
  422099:	e8 8e fd ff ff       	callq  421e2c <notify_server>
  42209e:	48 83 c4 08          	add    $0x8,%rsp
  4220a2:	c3                   	retq   

00000000004220a3 <bushandler>:
  4220a3:	48 83 ec 08          	sub    $0x8,%rsp
  4220a7:	83 3d 5a 34 20 00 00 	cmpl   $0x0,0x20345a(%rip)        # 625508 <is_checker>
  4220ae:	74 14                	je     4220c4 <bushandler+0x21>
  4220b0:	bf 95 38 42 00       	mov    $0x423895,%edi
  4220b5:	e8 d6 ec fd ff       	callq  400d90 <puts@plt>
  4220ba:	b8 00 00 00 00       	mov    $0x0,%eax
  4220bf:	e8 e7 fc ff ff       	callq  421dab <check_fail>
  4220c4:	bf 00 3a 42 00       	mov    $0x423a00,%edi
  4220c9:	e8 c2 ec fd ff       	callq  400d90 <puts@plt>
  4220ce:	bf 9f 38 42 00       	mov    $0x42389f,%edi
  4220d3:	e8 b8 ec fd ff       	callq  400d90 <puts@plt>
  4220d8:	be 00 00 00 00       	mov    $0x0,%esi
  4220dd:	bf 00 00 00 00       	mov    $0x0,%edi
  4220e2:	e8 45 fd ff ff       	callq  421e2c <notify_server>
  4220e7:	bf 01 00 00 00       	mov    $0x1,%edi
  4220ec:	e8 bf ec fd ff       	callq  400db0 <exit@plt>

00000000004220f1 <seghandler>:
  4220f1:	48 83 ec 08          	sub    $0x8,%rsp
  4220f5:	83 3d 0c 34 20 00 00 	cmpl   $0x0,0x20340c(%rip)        # 625508 <is_checker>
  4220fc:	74 14                	je     422112 <seghandler+0x21>
  4220fe:	bf b5 38 42 00       	mov    $0x4238b5,%edi
  422103:	e8 88 ec fd ff       	callq  400d90 <puts@plt>
  422108:	b8 00 00 00 00       	mov    $0x0,%eax
  42210d:	e8 99 fc ff ff       	callq  421dab <check_fail>
  422112:	bf 20 3a 42 00       	mov    $0x423a20,%edi
  422117:	e8 74 ec fd ff       	callq  400d90 <puts@plt>
  42211c:	bf 9f 38 42 00       	mov    $0x42389f,%edi
  422121:	e8 6a ec fd ff       	callq  400d90 <puts@plt>
  422126:	be 00 00 00 00       	mov    $0x0,%esi
  42212b:	bf 00 00 00 00       	mov    $0x0,%edi
  422130:	e8 f7 fc ff ff       	callq  421e2c <notify_server>
  422135:	bf 01 00 00 00       	mov    $0x1,%edi
  42213a:	e8 71 ec fd ff       	callq  400db0 <exit@plt>

000000000042213f <illegalhandler>:
  42213f:	48 83 ec 08          	sub    $0x8,%rsp
  422143:	83 3d be 33 20 00 00 	cmpl   $0x0,0x2033be(%rip)        # 625508 <is_checker>
  42214a:	74 14                	je     422160 <illegalhandler+0x21>
  42214c:	bf c8 38 42 00       	mov    $0x4238c8,%edi
  422151:	e8 3a ec fd ff       	callq  400d90 <puts@plt>
  422156:	b8 00 00 00 00       	mov    $0x0,%eax
  42215b:	e8 4b fc ff ff       	callq  421dab <check_fail>
  422160:	bf 48 3a 42 00       	mov    $0x423a48,%edi
  422165:	e8 26 ec fd ff       	callq  400d90 <puts@plt>
  42216a:	bf 9f 38 42 00       	mov    $0x42389f,%edi
  42216f:	e8 1c ec fd ff       	callq  400d90 <puts@plt>
  422174:	be 00 00 00 00       	mov    $0x0,%esi
  422179:	bf 00 00 00 00       	mov    $0x0,%edi
  42217e:	e8 a9 fc ff ff       	callq  421e2c <notify_server>
  422183:	bf 01 00 00 00       	mov    $0x1,%edi
  422188:	e8 23 ec fd ff       	callq  400db0 <exit@plt>

000000000042218d <sigalrmhandler>:
  42218d:	48 83 ec 08          	sub    $0x8,%rsp
  422191:	83 3d 70 33 20 00 00 	cmpl   $0x0,0x203370(%rip)        # 625508 <is_checker>
  422198:	74 14                	je     4221ae <sigalrmhandler+0x21>
  42219a:	bf dc 38 42 00       	mov    $0x4238dc,%edi
  42219f:	e8 ec eb fd ff       	callq  400d90 <puts@plt>
  4221a4:	b8 00 00 00 00       	mov    $0x0,%eax
  4221a9:	e8 fd fb ff ff       	callq  421dab <check_fail>
  4221ae:	be 05 00 00 00       	mov    $0x5,%esi
  4221b3:	bf 78 3a 42 00       	mov    $0x423a78,%edi
  4221b8:	b8 00 00 00 00       	mov    $0x0,%eax
  4221bd:	e8 8e eb fd ff       	callq  400d50 <printf@plt>
  4221c2:	be 00 00 00 00       	mov    $0x0,%esi
  4221c7:	bf 00 00 00 00       	mov    $0x0,%edi
  4221cc:	e8 5b fc ff ff       	callq  421e2c <notify_server>
  4221d1:	bf 01 00 00 00       	mov    $0x1,%edi
  4221d6:	e8 d5 eb fd ff       	callq  400db0 <exit@plt>

00000000004221db <launch>:
  4221db:	55                   	push   %rbp
  4221dc:	48 89 e5             	mov    %rsp,%rbp
  4221df:	48 89 fa             	mov    %rdi,%rdx
  4221e2:	48 8d 47 1e          	lea    0x1e(%rdi),%rax
  4221e6:	48 83 e0 f0          	and    $0xfffffffffffffff0,%rax
  4221ea:	48 29 c4             	sub    %rax,%rsp
  4221ed:	48 8d 7c 24 0f       	lea    0xf(%rsp),%rdi
  4221f2:	48 83 e7 f0          	and    $0xfffffffffffffff0,%rdi
  4221f6:	be f4 00 00 00       	mov    $0xf4,%esi
  4221fb:	e8 60 eb fd ff       	callq  400d60 <memset@plt>
  422200:	48 8b 05 b9 32 20 00 	mov    0x2032b9(%rip),%rax        # 6254c0 <stdin@@GLIBC_2.2.5>
  422207:	48 39 05 e2 32 20 00 	cmp    %rax,0x2032e2(%rip)        # 6254f0 <infile>
  42220e:	75 0f                	jne    42221f <launch+0x44>
  422210:	bf e4 38 42 00       	mov    $0x4238e4,%edi
  422215:	b8 00 00 00 00       	mov    $0x0,%eax
  42221a:	e8 31 eb fd ff       	callq  400d50 <printf@plt>
  42221f:	c7 05 d3 32 20 00 00 	movl   $0x0,0x2032d3(%rip)        # 6254fc <vlevel>
  422226:	00 00 00 
  422229:	b8 00 00 00 00       	mov    $0x0,%eax
  42222e:	e8 e7 fa ff ff       	callq  421d1a <test>
  422233:	83 3d ce 32 20 00 00 	cmpl   $0x0,0x2032ce(%rip)        # 625508 <is_checker>
  42223a:	74 14                	je     422250 <launch+0x75>
  42223c:	bf f1 38 42 00       	mov    $0x4238f1,%edi
  422241:	e8 4a eb fd ff       	callq  400d90 <puts@plt>
  422246:	b8 00 00 00 00       	mov    $0x0,%eax
  42224b:	e8 5b fb ff ff       	callq  421dab <check_fail>
  422250:	bf fc 38 42 00       	mov    $0x4238fc,%edi
  422255:	e8 36 eb fd ff       	callq  400d90 <puts@plt>
  42225a:	c9                   	leaveq 
  42225b:	c3                   	retq   

000000000042225c <stable_launch>:
  42225c:	53                   	push   %rbx
  42225d:	48 89 3d 84 32 20 00 	mov    %rdi,0x203284(%rip)        # 6254e8 <global_offset>
  422264:	41 b9 00 00 00 00    	mov    $0x0,%r9d
  42226a:	41 b8 00 00 00 00    	mov    $0x0,%r8d
  422270:	b9 32 01 00 00       	mov    $0x132,%ecx
  422275:	ba 07 00 00 00       	mov    $0x7,%edx
  42227a:	be 00 00 10 00       	mov    $0x100000,%esi
  42227f:	bf 00 60 58 55       	mov    $0x55586000,%edi
  422284:	e8 e7 ec fd ff       	callq  400f70 <mmap@plt>
  422289:	48 89 c3             	mov    %rax,%rbx
  42228c:	48 3d 00 60 58 55    	cmp    $0x55586000,%rax
  422292:	74 32                	je     4222c6 <stable_launch+0x6a>
  422294:	be 00 00 10 00       	mov    $0x100000,%esi
  422299:	48 89 c7             	mov    %rax,%rdi
  42229c:	e8 6f ec fd ff       	callq  400f10 <munmap@plt>
  4222a1:	ba 00 60 58 55       	mov    $0x55586000,%edx
  4222a6:	be b0 3a 42 00       	mov    $0x423ab0,%esi
  4222ab:	48 8b 3d 1e 32 20 00 	mov    0x20321e(%rip),%rdi        # 6254d0 <stderr@@GLIBC_2.2.5>
  4222b2:	b8 00 00 00 00       	mov    $0x0,%eax
  4222b7:	e8 74 ec fd ff       	callq  400f30 <fprintf@plt>
  4222bc:	bf 01 00 00 00       	mov    $0x1,%edi
  4222c1:	e8 ea ea fd ff       	callq  400db0 <exit@plt>
  4222c6:	48 8d 90 f8 ff 0f 00 	lea    0xffff8(%rax),%rdx
  4222cd:	48 89 15 5c 3e 20 00 	mov    %rdx,0x203e5c(%rip)        # 626130 <stack_top>
  4222d4:	48 89 e0             	mov    %rsp,%rax
  4222d7:	48 89 d4             	mov    %rdx,%rsp
  4222da:	48 89 c2             	mov    %rax,%rdx
  4222dd:	48 89 15 fc 31 20 00 	mov    %rdx,0x2031fc(%rip)        # 6254e0 <global_save_stack>
  4222e4:	48 8b 3d fd 31 20 00 	mov    0x2031fd(%rip),%rdi        # 6254e8 <global_offset>
  4222eb:	e8 eb fe ff ff       	callq  4221db <launch>
  4222f0:	48 8b 05 e9 31 20 00 	mov    0x2031e9(%rip),%rax        # 6254e0 <global_save_stack>
  4222f7:	48 89 c4             	mov    %rax,%rsp
  4222fa:	be 00 00 10 00       	mov    $0x100000,%esi
  4222ff:	48 89 df             	mov    %rbx,%rdi
  422302:	e8 09 ec fd ff       	callq  400f10 <munmap@plt>
  422307:	5b                   	pop    %rbx
  422308:	c3                   	retq   
  422309:	0f 1f 80 00 00 00 00 	nopl   0x0(%rax)

0000000000422310 <rio_readinitb>:
  422310:	89 37                	mov    %esi,(%rdi)
  422312:	c7 47 04 00 00 00 00 	movl   $0x0,0x4(%rdi)
  422319:	48 8d 47 10          	lea    0x10(%rdi),%rax
  42231d:	48 89 47 08          	mov    %rax,0x8(%rdi)
  422321:	c3                   	retq   

0000000000422322 <sigalrm_handler>:
  422322:	48 83 ec 08          	sub    $0x8,%rsp
  422326:	ba 00 00 00 00       	mov    $0x0,%edx
  42232b:	be f0 3a 42 00       	mov    $0x423af0,%esi
  422330:	48 8b 3d 99 31 20 00 	mov    0x203199(%rip),%rdi        # 6254d0 <stderr@@GLIBC_2.2.5>
  422337:	b8 00 00 00 00       	mov    $0x0,%eax
  42233c:	e8 ef eb fd ff       	callq  400f30 <fprintf@plt>
  422341:	bf 01 00 00 00       	mov    $0x1,%edi
  422346:	e8 65 ea fd ff       	callq  400db0 <exit@plt>

000000000042234b <urlencode>:
  42234b:	41 54                	push   %r12
  42234d:	55                   	push   %rbp
  42234e:	53                   	push   %rbx
  42234f:	48 83 ec 10          	sub    $0x10,%rsp
  422353:	48 89 fb             	mov    %rdi,%rbx
  422356:	48 89 f5             	mov    %rsi,%rbp
  422359:	b8 00 00 00 00       	mov    $0x0,%eax
  42235e:	48 c7 c1 ff ff ff ff 	mov    $0xffffffffffffffff,%rcx
  422365:	f2 ae                	repnz scas %es:(%rdi),%al
  422367:	48 f7 d1             	not    %rcx
  42236a:	8d 41 ff             	lea    -0x1(%rcx),%eax
  42236d:	e9 93 00 00 00       	jmpq   422405 <urlencode+0xba>
  422372:	0f b6 13             	movzbl (%rbx),%edx
  422375:	80 fa 2a             	cmp    $0x2a,%dl
  422378:	0f 94 c1             	sete   %cl
  42237b:	80 fa 2d             	cmp    $0x2d,%dl
  42237e:	0f 94 c0             	sete   %al
  422381:	08 c1                	or     %al,%cl
  422383:	75 1f                	jne    4223a4 <urlencode+0x59>
  422385:	80 fa 2e             	cmp    $0x2e,%dl
  422388:	74 1a                	je     4223a4 <urlencode+0x59>
  42238a:	80 fa 5f             	cmp    $0x5f,%dl
  42238d:	74 15                	je     4223a4 <urlencode+0x59>
  42238f:	8d 42 d0             	lea    -0x30(%rdx),%eax
  422392:	3c 09                	cmp    $0x9,%al
  422394:	76 0e                	jbe    4223a4 <urlencode+0x59>
  422396:	8d 42 bf             	lea    -0x41(%rdx),%eax
  422399:	3c 19                	cmp    $0x19,%al
  42239b:	76 07                	jbe    4223a4 <urlencode+0x59>
  42239d:	8d 42 9f             	lea    -0x61(%rdx),%eax
  4223a0:	3c 19                	cmp    $0x19,%al
  4223a2:	77 09                	ja     4223ad <urlencode+0x62>
  4223a4:	88 55 00             	mov    %dl,0x0(%rbp)
  4223a7:	48 8d 6d 01          	lea    0x1(%rbp),%rbp
  4223ab:	eb 51                	jmp    4223fe <urlencode+0xb3>
  4223ad:	80 fa 20             	cmp    $0x20,%dl
  4223b0:	75 0a                	jne    4223bc <urlencode+0x71>
  4223b2:	c6 45 00 2b          	movb   $0x2b,0x0(%rbp)
  4223b6:	48 8d 6d 01          	lea    0x1(%rbp),%rbp
  4223ba:	eb 42                	jmp    4223fe <urlencode+0xb3>
  4223bc:	8d 42 e0             	lea    -0x20(%rdx),%eax
  4223bf:	3c 5f                	cmp    $0x5f,%al
  4223c1:	0f 96 c1             	setbe  %cl
  4223c4:	80 fa 09             	cmp    $0x9,%dl
  4223c7:	0f 94 c0             	sete   %al
  4223ca:	08 c1                	or     %al,%cl
  4223cc:	74 45                	je     422413 <urlencode+0xc8>
  4223ce:	0f b6 d2             	movzbl %dl,%edx
  4223d1:	be a5 3b 42 00       	mov    $0x423ba5,%esi
  4223d6:	48 89 e7             	mov    %rsp,%rdi
  4223d9:	b8 00 00 00 00       	mov    $0x0,%eax
  4223de:	e8 7d ea fd ff       	callq  400e60 <sprintf@plt>
  4223e3:	0f b6 04 24          	movzbl (%rsp),%eax
  4223e7:	88 45 00             	mov    %al,0x0(%rbp)
  4223ea:	0f b6 44 24 01       	movzbl 0x1(%rsp),%eax
  4223ef:	88 45 01             	mov    %al,0x1(%rbp)
  4223f2:	0f b6 44 24 02       	movzbl 0x2(%rsp),%eax
  4223f7:	88 45 02             	mov    %al,0x2(%rbp)
  4223fa:	48 8d 6d 03          	lea    0x3(%rbp),%rbp
  4223fe:	48 83 c3 01          	add    $0x1,%rbx
  422402:	44 89 e0             	mov    %r12d,%eax
  422405:	44 8d 60 ff          	lea    -0x1(%rax),%r12d
  422409:	85 c0                	test   %eax,%eax
  42240b:	0f 85 61 ff ff ff    	jne    422372 <urlencode+0x27>
  422411:	eb 05                	jmp    422418 <urlencode+0xcd>
  422413:	b8 ff ff ff ff       	mov    $0xffffffff,%eax
  422418:	48 83 c4 10          	add    $0x10,%rsp
  42241c:	5b                   	pop    %rbx
  42241d:	5d                   	pop    %rbp
  42241e:	41 5c                	pop    %r12
  422420:	c3                   	retq   

0000000000422421 <rio_writen>:
  422421:	41 55                	push   %r13
  422423:	41 54                	push   %r12
  422425:	55                   	push   %rbp
  422426:	53                   	push   %rbx
  422427:	48 83 ec 08          	sub    $0x8,%rsp
  42242b:	41 89 fc             	mov    %edi,%r12d
  42242e:	48 89 f5             	mov    %rsi,%rbp
  422431:	49 89 d5             	mov    %rdx,%r13
  422434:	48 89 d3             	mov    %rdx,%rbx
  422437:	eb 28                	jmp    422461 <rio_writen+0x40>
  422439:	48 89 da             	mov    %rbx,%rdx
  42243c:	48 89 ee             	mov    %rbp,%rsi
  42243f:	44 89 e7             	mov    %r12d,%edi
  422442:	e8 f9 ea fd ff       	callq  400f40 <write@plt>
  422447:	48 85 c0             	test   %rax,%rax
  42244a:	7f 0f                	jg     42245b <rio_writen+0x3a>
  42244c:	e8 8f ea fd ff       	callq  400ee0 <__errno_location@plt>
  422451:	83 38 04             	cmpl   $0x4,(%rax)
  422454:	75 15                	jne    42246b <rio_writen+0x4a>
  422456:	b8 00 00 00 00       	mov    $0x0,%eax
  42245b:	48 29 c3             	sub    %rax,%rbx
  42245e:	48 01 c5             	add    %rax,%rbp
  422461:	48 85 db             	test   %rbx,%rbx
  422464:	75 d3                	jne    422439 <rio_writen+0x18>
  422466:	4c 89 e8             	mov    %r13,%rax
  422469:	eb 07                	jmp    422472 <rio_writen+0x51>
  42246b:	48 c7 c0 ff ff ff ff 	mov    $0xffffffffffffffff,%rax
  422472:	48 83 c4 08          	add    $0x8,%rsp
  422476:	5b                   	pop    %rbx
  422477:	5d                   	pop    %rbp
  422478:	41 5c                	pop    %r12
  42247a:	41 5d                	pop    %r13
  42247c:	c3                   	retq   

000000000042247d <rio_read>:
  42247d:	41 56                	push   %r14
  42247f:	41 55                	push   %r13
  422481:	41 54                	push   %r12
  422483:	55                   	push   %rbp
  422484:	53                   	push   %rbx
  422485:	48 89 fb             	mov    %rdi,%rbx
  422488:	49 89 f6             	mov    %rsi,%r14
  42248b:	49 89 d5             	mov    %rdx,%r13
  42248e:	4c 8d 67 10          	lea    0x10(%rdi),%r12
  422492:	eb 2a                	jmp    4224be <rio_read+0x41>
  422494:	ba 00 20 00 00       	mov    $0x2000,%edx
  422499:	4c 89 e6             	mov    %r12,%rsi
  42249c:	8b 3b                	mov    (%rbx),%edi
  42249e:	e8 3d e9 fd ff       	callq  400de0 <read@plt>
  4224a3:	89 43 04             	mov    %eax,0x4(%rbx)
  4224a6:	85 c0                	test   %eax,%eax
  4224a8:	79 0c                	jns    4224b6 <rio_read+0x39>
  4224aa:	e8 31 ea fd ff       	callq  400ee0 <__errno_location@plt>
  4224af:	83 38 04             	cmpl   $0x4,(%rax)
  4224b2:	74 0a                	je     4224be <rio_read+0x41>
  4224b4:	eb 37                	jmp    4224ed <rio_read+0x70>
  4224b6:	85 c0                	test   %eax,%eax
  4224b8:	74 3c                	je     4224f6 <rio_read+0x79>
  4224ba:	4c 89 63 08          	mov    %r12,0x8(%rbx)
  4224be:	8b 6b 04             	mov    0x4(%rbx),%ebp
  4224c1:	85 ed                	test   %ebp,%ebp
  4224c3:	7e cf                	jle    422494 <rio_read+0x17>
  4224c5:	89 e8                	mov    %ebp,%eax
  4224c7:	4c 39 e8             	cmp    %r13,%rax
  4224ca:	72 03                	jb     4224cf <rio_read+0x52>
  4224cc:	44 89 ed             	mov    %r13d,%ebp
  4224cf:	4c 63 e5             	movslq %ebp,%r12
  4224d2:	48 8b 73 08          	mov    0x8(%rbx),%rsi
  4224d6:	4c 89 e2             	mov    %r12,%rdx
  4224d9:	4c 89 f7             	mov    %r14,%rdi
  4224dc:	e8 7f ea fd ff       	callq  400f60 <memcpy@plt>
  4224e1:	4c 01 63 08          	add    %r12,0x8(%rbx)
  4224e5:	29 6b 04             	sub    %ebp,0x4(%rbx)
  4224e8:	4c 89 e0             	mov    %r12,%rax
  4224eb:	eb 0e                	jmp    4224fb <rio_read+0x7e>
  4224ed:	48 c7 c0 ff ff ff ff 	mov    $0xffffffffffffffff,%rax
  4224f4:	eb 05                	jmp    4224fb <rio_read+0x7e>
  4224f6:	b8 00 00 00 00       	mov    $0x0,%eax
  4224fb:	5b                   	pop    %rbx
  4224fc:	5d                   	pop    %rbp
  4224fd:	41 5c                	pop    %r12
  4224ff:	41 5d                	pop    %r13
  422501:	41 5e                	pop    %r14
  422503:	c3                   	retq   

0000000000422504 <rio_readlineb>:
  422504:	41 55                	push   %r13
  422506:	41 54                	push   %r12
  422508:	55                   	push   %rbp
  422509:	53                   	push   %rbx
  42250a:	48 83 ec 18          	sub    $0x18,%rsp
  42250e:	49 89 fd             	mov    %rdi,%r13
  422511:	48 89 f5             	mov    %rsi,%rbp
  422514:	49 89 d4             	mov    %rdx,%r12
  422517:	bb 01 00 00 00       	mov    $0x1,%ebx
  42251c:	eb 3d                	jmp    42255b <rio_readlineb+0x57>
  42251e:	ba 01 00 00 00       	mov    $0x1,%edx
  422523:	48 8d 74 24 0f       	lea    0xf(%rsp),%rsi
  422528:	4c 89 ef             	mov    %r13,%rdi
  42252b:	e8 4d ff ff ff       	callq  42247d <rio_read>
  422530:	83 f8 01             	cmp    $0x1,%eax
  422533:	75 12                	jne    422547 <rio_readlineb+0x43>
  422535:	48 8d 55 01          	lea    0x1(%rbp),%rdx
  422539:	0f b6 44 24 0f       	movzbl 0xf(%rsp),%eax
  42253e:	88 45 00             	mov    %al,0x0(%rbp)
  422541:	3c 0a                	cmp    $0xa,%al
  422543:	75 0f                	jne    422554 <rio_readlineb+0x50>
  422545:	eb 1b                	jmp    422562 <rio_readlineb+0x5e>
  422547:	85 c0                	test   %eax,%eax
  422549:	75 23                	jne    42256e <rio_readlineb+0x6a>
  42254b:	48 83 fb 01          	cmp    $0x1,%rbx
  42254f:	90                   	nop
  422550:	75 13                	jne    422565 <rio_readlineb+0x61>
  422552:	eb 23                	jmp    422577 <rio_readlineb+0x73>
  422554:	48 83 c3 01          	add    $0x1,%rbx
  422558:	48 89 d5             	mov    %rdx,%rbp
  42255b:	4c 39 e3             	cmp    %r12,%rbx
  42255e:	72 be                	jb     42251e <rio_readlineb+0x1a>
  422560:	eb 03                	jmp    422565 <rio_readlineb+0x61>
  422562:	48 89 d5             	mov    %rdx,%rbp
  422565:	c6 45 00 00          	movb   $0x0,0x0(%rbp)
  422569:	48 89 d8             	mov    %rbx,%rax
  42256c:	eb 0e                	jmp    42257c <rio_readlineb+0x78>
  42256e:	48 c7 c0 ff ff ff ff 	mov    $0xffffffffffffffff,%rax
  422575:	eb 05                	jmp    42257c <rio_readlineb+0x78>
  422577:	b8 00 00 00 00       	mov    $0x0,%eax
  42257c:	48 83 c4 18          	add    $0x18,%rsp
  422580:	5b                   	pop    %rbx
  422581:	5d                   	pop    %rbp
  422582:	41 5c                	pop    %r12
  422584:	41 5d                	pop    %r13
  422586:	c3                   	retq   

0000000000422587 <submitr>:
  422587:	41 57                	push   %r15
  422589:	41 56                	push   %r14
  42258b:	41 55                	push   %r13
  42258d:	41 54                	push   %r12
  42258f:	55                   	push   %rbp
  422590:	53                   	push   %rbx
  422591:	48 81 ec 58 a0 00 00 	sub    $0xa058,%rsp
  422598:	49 89 fc             	mov    %rdi,%r12
  42259b:	89 74 24 1c          	mov    %esi,0x1c(%rsp)
  42259f:	48 89 54 24 10       	mov    %rdx,0x10(%rsp)
  4225a4:	49 89 cf             	mov    %rcx,%r15
  4225a7:	4d 89 c6             	mov    %r8,%r14
  4225aa:	4d 89 cd             	mov    %r9,%r13
  4225ad:	48 8b 9c 24 90 a0 00 	mov    0xa090(%rsp),%rbx
  4225b4:	00 
  4225b5:	c7 84 24 2c 20 00 00 	movl   $0x0,0x202c(%rsp)
  4225bc:	00 00 00 00 
  4225c0:	ba 00 00 00 00       	mov    $0x0,%edx
  4225c5:	be 01 00 00 00       	mov    $0x1,%esi
  4225ca:	bf 02 00 00 00       	mov    $0x2,%edi
  4225cf:	e8 ec e8 fd ff       	callq  400ec0 <socket@plt>
  4225d4:	89 c5                	mov    %eax,%ebp
  4225d6:	85 c0                	test   %eax,%eax
  4225d8:	79 4e                	jns    422628 <submitr+0xa1>
  4225da:	48 b8 45 72 72 6f 72 	movabs $0x43203a726f727245,%rax
  4225e1:	3a 20 43 
  4225e4:	48 89 03             	mov    %rax,(%rbx)
  4225e7:	48 b8 6c 69 65 6e 74 	movabs $0x6e7520746e65696c,%rax
  4225ee:	20 75 6e 
  4225f1:	48 89 43 08          	mov    %rax,0x8(%rbx)
  4225f5:	48 b8 61 62 6c 65 20 	movabs $0x206f7420656c6261,%rax
  4225fc:	74 6f 20 
  4225ff:	48 89 43 10          	mov    %rax,0x10(%rbx)
  422603:	48 b8 63 72 65 61 74 	movabs $0x7320657461657263,%rax
  42260a:	65 20 73 
  42260d:	48 89 43 18          	mov    %rax,0x18(%rbx)
  422611:	c7 43 20 6f 63 6b 65 	movl   $0x656b636f,0x20(%rbx)
  422618:	66 c7 43 24 74 00    	movw   $0x74,0x24(%rbx)
  42261e:	b8 ff ff ff ff       	mov    $0xffffffff,%eax
  422623:	e9 83 06 00 00       	jmpq   422cab <submitr+0x724>
  422628:	4c 89 e7             	mov    %r12,%rdi
  42262b:	e8 50 e7 fd ff       	callq  400d80 <gethostbyname@plt>
  422630:	48 85 c0             	test   %rax,%rax
  422633:	75 75                	jne    4226aa <submitr+0x123>
  422635:	48 b8 45 72 72 6f 72 	movabs $0x44203a726f727245,%rax
  42263c:	3a 20 44 
  42263f:	48 89 03             	mov    %rax,(%rbx)
  422642:	48 b8 4e 53 20 69 73 	movabs $0x6e7520736920534e,%rax
  422649:	20 75 6e 
  42264c:	48 89 43 08          	mov    %rax,0x8(%rbx)
  422650:	48 b8 61 62 6c 65 20 	movabs $0x206f7420656c6261,%rax
  422657:	74 6f 20 
  42265a:	48 89 43 10          	mov    %rax,0x10(%rbx)
  42265e:	48 b8 72 65 73 6f 6c 	movabs $0x2065766c6f736572,%rax
  422665:	76 65 20 
  422668:	48 89 43 18          	mov    %rax,0x18(%rbx)
  42266c:	48 b8 41 75 74 6f 6c 	movabs $0x2062616c6f747541,%rax
  422673:	61 62 20 
  422676:	48 89 43 20          	mov    %rax,0x20(%rbx)
  42267a:	48 b8 73 65 72 76 65 	movabs $0x6120726576726573,%rax
  422681:	72 20 61 
  422684:	48 89 43 28          	mov    %rax,0x28(%rbx)
  422688:	c7 43 30 64 64 72 65 	movl   $0x65726464,0x30(%rbx)
  42268f:	66 c7 43 34 73 73    	movw   $0x7373,0x34(%rbx)
  422695:	c6 43 36 00          	movb   $0x0,0x36(%rbx)
  422699:	89 ef                	mov    %ebp,%edi
  42269b:	e8 d0 e6 fd ff       	callq  400d70 <close@plt>
  4226a0:	b8 ff ff ff ff       	mov    $0xffffffff,%eax
  4226a5:	e9 01 06 00 00       	jmpq   422cab <submitr+0x724>
  4226aa:	48 c7 84 24 40 a0 00 	movq   $0x0,0xa040(%rsp)
  4226b1:	00 00 00 00 00 
  4226b6:	48 c7 84 24 48 a0 00 	movq   $0x0,0xa048(%rsp)
  4226bd:	00 00 00 00 00 
  4226c2:	66 c7 84 24 40 a0 00 	movw   $0x2,0xa040(%rsp)
  4226c9:	00 02 00 
  4226cc:	48 8b 48 18          	mov    0x18(%rax),%rcx
  4226d0:	48 63 50 14          	movslq 0x14(%rax),%rdx
  4226d4:	48 8d b4 24 44 a0 00 	lea    0xa044(%rsp),%rsi
  4226db:	00 
  4226dc:	48 8b 39             	mov    (%rcx),%rdi
  4226df:	e8 6c e7 fd ff       	callq  400e50 <bcopy@plt>
  4226e4:	0f b7 44 24 1c       	movzwl 0x1c(%rsp),%eax
  4226e9:	66 c1 c8 08          	ror    $0x8,%ax
  4226ed:	66 89 84 24 42 a0 00 	mov    %ax,0xa042(%rsp)
  4226f4:	00 
  4226f5:	ba 10 00 00 00       	mov    $0x10,%edx
  4226fa:	48 8d b4 24 40 a0 00 	lea    0xa040(%rsp),%rsi
  422701:	00 
  422702:	89 ef                	mov    %ebp,%edi
  422704:	e8 87 e7 fd ff       	callq  400e90 <connect@plt>
  422709:	85 c0                	test   %eax,%eax
  42270b:	79 67                	jns    422774 <submitr+0x1ed>
  42270d:	48 b8 45 72 72 6f 72 	movabs $0x55203a726f727245,%rax
  422714:	3a 20 55 
  422717:	48 89 03             	mov    %rax,(%rbx)
  42271a:	48 b8 6e 61 62 6c 65 	movabs $0x6f7420656c62616e,%rax
  422721:	20 74 6f 
  422724:	48 89 43 08          	mov    %rax,0x8(%rbx)
  422728:	48 b8 20 63 6f 6e 6e 	movabs $0x7463656e6e6f6320,%rax
  42272f:	65 63 74 
  422732:	48 89 43 10          	mov    %rax,0x10(%rbx)
  422736:	48 b8 20 74 6f 20 74 	movabs $0x20656874206f7420,%rax
  42273d:	68 65 20 
  422740:	48 89 43 18          	mov    %rax,0x18(%rbx)
  422744:	48 b8 41 75 74 6f 6c 	movabs $0x2062616c6f747541,%rax
  42274b:	61 62 20 
  42274e:	48 89 43 20          	mov    %rax,0x20(%rbx)
  422752:	c7 43 28 73 65 72 76 	movl   $0x76726573,0x28(%rbx)
  422759:	66 c7 43 2c 65 72    	movw   $0x7265,0x2c(%rbx)
  42275f:	c6 43 2e 00          	movb   $0x0,0x2e(%rbx)
  422763:	89 ef                	mov    %ebp,%edi
  422765:	e8 06 e6 fd ff       	callq  400d70 <close@plt>
  42276a:	b8 ff ff ff ff       	mov    $0xffffffff,%eax
  42276f:	e9 37 05 00 00       	jmpq   422cab <submitr+0x724>
  422774:	48 c7 c2 ff ff ff ff 	mov    $0xffffffffffffffff,%rdx
  42277b:	4c 89 ef             	mov    %r13,%rdi
  42277e:	b8 00 00 00 00       	mov    $0x0,%eax
  422783:	48 89 d1             	mov    %rdx,%rcx
  422786:	f2 ae                	repnz scas %es:(%rdi),%al
  422788:	48 f7 d1             	not    %rcx
  42278b:	48 89 ce             	mov    %rcx,%rsi
  42278e:	48 8b 7c 24 10       	mov    0x10(%rsp),%rdi
  422793:	48 89 d1             	mov    %rdx,%rcx
  422796:	f2 ae                	repnz scas %es:(%rdi),%al
  422798:	48 f7 d1             	not    %rcx
  42279b:	49 89 c8             	mov    %rcx,%r8
  42279e:	4c 89 ff             	mov    %r15,%rdi
  4227a1:	48 89 d1             	mov    %rdx,%rcx
  4227a4:	f2 ae                	repnz scas %es:(%rdi),%al
  4227a6:	49 29 c8             	sub    %rcx,%r8
  4227a9:	4c 89 f7             	mov    %r14,%rdi
  4227ac:	48 89 d1             	mov    %rdx,%rcx
  4227af:	f2 ae                	repnz scas %es:(%rdi),%al
  4227b1:	49 29 c8             	sub    %rcx,%r8
  4227b4:	48 8d 44 76 fd       	lea    -0x3(%rsi,%rsi,2),%rax
  4227b9:	49 8d 44 00 7b       	lea    0x7b(%r8,%rax,1),%rax
  4227be:	48 3d 00 20 00 00    	cmp    $0x2000,%rax
  4227c4:	76 72                	jbe    422838 <submitr+0x2b1>
  4227c6:	48 b8 45 72 72 6f 72 	movabs $0x52203a726f727245,%rax
  4227cd:	3a 20 52 
  4227d0:	48 89 03             	mov    %rax,(%rbx)
  4227d3:	48 b8 65 73 75 6c 74 	movabs $0x747320746c757365,%rax
  4227da:	20 73 74 
  4227dd:	48 89 43 08          	mov    %rax,0x8(%rbx)
  4227e1:	48 b8 72 69 6e 67 20 	movabs $0x6f6f7420676e6972,%rax
  4227e8:	74 6f 6f 
  4227eb:	48 89 43 10          	mov    %rax,0x10(%rbx)
  4227ef:	48 b8 20 6c 61 72 67 	movabs $0x202e656772616c20,%rax
  4227f6:	65 2e 20 
  4227f9:	48 89 43 18          	mov    %rax,0x18(%rbx)
  4227fd:	48 b8 49 6e 63 72 65 	movabs $0x6573616572636e49,%rax
  422804:	61 73 65 
  422807:	48 89 43 20          	mov    %rax,0x20(%rbx)
  42280b:	48 b8 20 53 55 42 4d 	movabs $0x5254494d42555320,%rax
  422812:	49 54 52 
  422815:	48 89 43 28          	mov    %rax,0x28(%rbx)
  422819:	48 b8 5f 4d 41 58 42 	movabs $0x46554258414d5f,%rax
  422820:	55 46 00 
  422823:	48 89 43 30          	mov    %rax,0x30(%rbx)
  422827:	89 ef                	mov    %ebp,%edi
  422829:	e8 42 e5 fd ff       	callq  400d70 <close@plt>
  42282e:	b8 ff ff ff ff       	mov    $0xffffffff,%eax
  422833:	e9 73 04 00 00       	jmpq   422cab <submitr+0x724>
  422838:	48 8d b4 24 30 40 00 	lea    0x4030(%rsp),%rsi
  42283f:	00 
  422840:	b9 00 04 00 00       	mov    $0x400,%ecx
  422845:	b8 00 00 00 00       	mov    $0x0,%eax
  42284a:	48 89 f7             	mov    %rsi,%rdi
  42284d:	f3 48 ab             	rep stos %rax,%es:(%rdi)
  422850:	4c 89 ef             	mov    %r13,%rdi
  422853:	e8 f3 fa ff ff       	callq  42234b <urlencode>
  422858:	85 c0                	test   %eax,%eax
  42285a:	0f 89 8a 00 00 00    	jns    4228ea <submitr+0x363>
  422860:	48 b8 45 72 72 6f 72 	movabs $0x52203a726f727245,%rax
  422867:	3a 20 52 
  42286a:	48 89 03             	mov    %rax,(%rbx)
  42286d:	48 b8 65 73 75 6c 74 	movabs $0x747320746c757365,%rax
  422874:	20 73 74 
  422877:	48 89 43 08          	mov    %rax,0x8(%rbx)
  42287b:	48 b8 72 69 6e 67 20 	movabs $0x6e6f6320676e6972,%rax
  422882:	63 6f 6e 
  422885:	48 89 43 10          	mov    %rax,0x10(%rbx)
  422889:	48 b8 74 61 69 6e 73 	movabs $0x6e6120736e696174,%rax
  422890:	20 61 6e 
  422893:	48 89 43 18          	mov    %rax,0x18(%rbx)
  422897:	48 b8 20 69 6c 6c 65 	movabs $0x6c6167656c6c6920,%rax
  42289e:	67 61 6c 
  4228a1:	48 89 43 20          	mov    %rax,0x20(%rbx)
  4228a5:	48 b8 20 6f 72 20 75 	movabs $0x72706e7520726f20,%rax
  4228ac:	6e 70 72 
  4228af:	48 89 43 28          	mov    %rax,0x28(%rbx)
  4228b3:	48 b8 69 6e 74 61 62 	movabs $0x20656c6261746e69,%rax
  4228ba:	6c 65 20 
  4228bd:	48 89 43 30          	mov    %rax,0x30(%rbx)
  4228c1:	48 b8 63 68 61 72 61 	movabs $0x6574636172616863,%rax
  4228c8:	63 74 65 
  4228cb:	48 89 43 38          	mov    %rax,0x38(%rbx)
  4228cf:	66 c7 43 40 72 2e    	movw   $0x2e72,0x40(%rbx)
  4228d5:	c6 43 42 00          	movb   $0x0,0x42(%rbx)
  4228d9:	89 ef                	mov    %ebp,%edi
  4228db:	e8 90 e4 fd ff       	callq  400d70 <close@plt>
  4228e0:	b8 ff ff ff ff       	mov    $0xffffffff,%eax
  4228e5:	e9 c1 03 00 00       	jmpq   422cab <submitr+0x724>
  4228ea:	4c 89 24 24          	mov    %r12,(%rsp)
  4228ee:	4c 8d 8c 24 30 40 00 	lea    0x4030(%rsp),%r9
  4228f5:	00 
  4228f6:	4d 89 f8             	mov    %r15,%r8
  4228f9:	4c 89 f1             	mov    %r14,%rcx
  4228fc:	48 8b 54 24 10       	mov    0x10(%rsp),%rdx
  422901:	be 18 3b 42 00       	mov    $0x423b18,%esi
  422906:	48 8d bc 24 30 60 00 	lea    0x6030(%rsp),%rdi
  42290d:	00 
  42290e:	b8 00 00 00 00       	mov    $0x0,%eax
  422913:	e8 48 e5 fd ff       	callq  400e60 <sprintf@plt>
  422918:	48 8d bc 24 30 60 00 	lea    0x6030(%rsp),%rdi
  42291f:	00 
  422920:	b8 00 00 00 00       	mov    $0x0,%eax
  422925:	48 c7 c1 ff ff ff ff 	mov    $0xffffffffffffffff,%rcx
  42292c:	f2 ae                	repnz scas %es:(%rdi),%al
  42292e:	48 f7 d1             	not    %rcx
  422931:	48 8d 51 ff          	lea    -0x1(%rcx),%rdx
  422935:	48 8d b4 24 30 60 00 	lea    0x6030(%rsp),%rsi
  42293c:	00 
  42293d:	89 ef                	mov    %ebp,%edi
  42293f:	e8 dd fa ff ff       	callq  422421 <rio_writen>
  422944:	48 85 c0             	test   %rax,%rax
  422947:	79 6b                	jns    4229b4 <submitr+0x42d>
  422949:	48 b8 45 72 72 6f 72 	movabs $0x43203a726f727245,%rax
  422950:	3a 20 43 
  422953:	48 89 03             	mov    %rax,(%rbx)
  422956:	48 b8 6c 69 65 6e 74 	movabs $0x6e7520746e65696c,%rax
  42295d:	20 75 6e 
  422960:	48 89 43 08          	mov    %rax,0x8(%rbx)
  422964:	48 b8 61 62 6c 65 20 	movabs $0x206f7420656c6261,%rax
  42296b:	74 6f 20 
  42296e:	48 89 43 10          	mov    %rax,0x10(%rbx)
  422972:	48 b8 77 72 69 74 65 	movabs $0x6f74206574697277,%rax
  422979:	20 74 6f 
  42297c:	48 89 43 18          	mov    %rax,0x18(%rbx)
  422980:	48 b8 20 74 68 65 20 	movabs $0x7475412065687420,%rax
  422987:	41 75 74 
  42298a:	48 89 43 20          	mov    %rax,0x20(%rbx)
  42298e:	48 b8 6f 6c 61 62 20 	movabs $0x7265732062616c6f,%rax
  422995:	73 65 72 
  422998:	48 89 43 28          	mov    %rax,0x28(%rbx)
  42299c:	c7 43 30 76 65 72 00 	movl   $0x726576,0x30(%rbx)
  4229a3:	89 ef                	mov    %ebp,%edi
  4229a5:	e8 c6 e3 fd ff       	callq  400d70 <close@plt>
  4229aa:	b8 ff ff ff ff       	mov    $0xffffffff,%eax
  4229af:	e9 f7 02 00 00       	jmpq   422cab <submitr+0x724>
  4229b4:	89 ee                	mov    %ebp,%esi
  4229b6:	48 8d bc 24 30 80 00 	lea    0x8030(%rsp),%rdi
  4229bd:	00 
  4229be:	e8 4d f9 ff ff       	callq  422310 <rio_readinitb>
  4229c3:	ba 00 20 00 00       	mov    $0x2000,%edx
  4229c8:	48 8d b4 24 30 60 00 	lea    0x6030(%rsp),%rsi
  4229cf:	00 
  4229d0:	48 8d bc 24 30 80 00 	lea    0x8030(%rsp),%rdi
  4229d7:	00 
  4229d8:	e8 27 fb ff ff       	callq  422504 <rio_readlineb>
  4229dd:	48 85 c0             	test   %rax,%rax
  4229e0:	7f 7f                	jg     422a61 <submitr+0x4da>
  4229e2:	48 b8 45 72 72 6f 72 	movabs $0x43203a726f727245,%rax
  4229e9:	3a 20 43 
  4229ec:	48 89 03             	mov    %rax,(%rbx)
  4229ef:	48 b8 6c 69 65 6e 74 	movabs $0x6e7520746e65696c,%rax
  4229f6:	20 75 6e 
  4229f9:	48 89 43 08          	mov    %rax,0x8(%rbx)
  4229fd:	48 b8 61 62 6c 65 20 	movabs $0x206f7420656c6261,%rax
  422a04:	74 6f 20 
  422a07:	48 89 43 10          	mov    %rax,0x10(%rbx)
  422a0b:	48 b8 72 65 61 64 20 	movabs $0x7269662064616572,%rax
  422a12:	66 69 72 
  422a15:	48 89 43 18          	mov    %rax,0x18(%rbx)
  422a19:	48 b8 73 74 20 68 65 	movabs $0x6564616568207473,%rax
  422a20:	61 64 65 
  422a23:	48 89 43 20          	mov    %rax,0x20(%rbx)
  422a27:	48 b8 72 20 66 72 6f 	movabs $0x41206d6f72662072,%rax
  422a2e:	6d 20 41 
  422a31:	48 89 43 28          	mov    %rax,0x28(%rbx)
  422a35:	48 b8 75 74 6f 6c 61 	movabs $0x732062616c6f7475,%rax
  422a3c:	62 20 73 
  422a3f:	48 89 43 30          	mov    %rax,0x30(%rbx)
  422a43:	c7 43 38 65 72 76 65 	movl   $0x65767265,0x38(%rbx)
  422a4a:	66 c7 43 3c 72 00    	movw   $0x72,0x3c(%rbx)
  422a50:	89 ef                	mov    %ebp,%edi
  422a52:	e8 19 e3 fd ff       	callq  400d70 <close@plt>
  422a57:	b8 ff ff ff ff       	mov    $0xffffffff,%eax
  422a5c:	e9 4a 02 00 00       	jmpq   422cab <submitr+0x724>
  422a61:	4c 8d 44 24 20       	lea    0x20(%rsp),%r8
  422a66:	48 8d 8c 24 2c 20 00 	lea    0x202c(%rsp),%rcx
  422a6d:	00 
  422a6e:	48 8d 94 24 30 20 00 	lea    0x2030(%rsp),%rdx
  422a75:	00 
  422a76:	be ac 3b 42 00       	mov    $0x423bac,%esi
  422a7b:	48 8d bc 24 30 60 00 	lea    0x6030(%rsp),%rdi
  422a82:	00 
  422a83:	b8 00 00 00 00       	mov    $0x0,%eax
  422a88:	e8 13 e3 fd ff       	callq  400da0 <__isoc99_sscanf@plt>
  422a8d:	e9 95 00 00 00       	jmpq   422b27 <submitr+0x5a0>
  422a92:	ba 00 20 00 00       	mov    $0x2000,%edx
  422a97:	48 8d b4 24 30 60 00 	lea    0x6030(%rsp),%rsi
  422a9e:	00 
  422a9f:	48 8d bc 24 30 80 00 	lea    0x8030(%rsp),%rdi
  422aa6:	00 
  422aa7:	e8 58 fa ff ff       	callq  422504 <rio_readlineb>
  422aac:	48 85 c0             	test   %rax,%rax
  422aaf:	7f 76                	jg     422b27 <submitr+0x5a0>
  422ab1:	48 b8 45 72 72 6f 72 	movabs $0x43203a726f727245,%rax
  422ab8:	3a 20 43 
  422abb:	48 89 03             	mov    %rax,(%rbx)
  422abe:	48 b8 6c 69 65 6e 74 	movabs $0x6e7520746e65696c,%rax
  422ac5:	20 75 6e 
  422ac8:	48 89 43 08          	mov    %rax,0x8(%rbx)
  422acc:	48 b8 61 62 6c 65 20 	movabs $0x206f7420656c6261,%rax
  422ad3:	74 6f 20 
  422ad6:	48 89 43 10          	mov    %rax,0x10(%rbx)
  422ada:	48 b8 72 65 61 64 20 	movabs $0x6165682064616572,%rax
  422ae1:	68 65 61 
  422ae4:	48 89 43 18          	mov    %rax,0x18(%rbx)
  422ae8:	48 b8 64 65 72 73 20 	movabs $0x6f72662073726564,%rax
  422aef:	66 72 6f 
  422af2:	48 89 43 20          	mov    %rax,0x20(%rbx)
  422af6:	48 b8 6d 20 41 75 74 	movabs $0x616c6f747541206d,%rax
  422afd:	6f 6c 61 
  422b00:	48 89 43 28          	mov    %rax,0x28(%rbx)
  422b04:	48 b8 62 20 73 65 72 	movabs $0x7265767265732062,%rax
  422b0b:	76 65 72 
  422b0e:	48 89 43 30          	mov    %rax,0x30(%rbx)
  422b12:	c6 43 38 00          	movb   $0x0,0x38(%rbx)
  422b16:	89 ef                	mov    %ebp,%edi
  422b18:	e8 53 e2 fd ff       	callq  400d70 <close@plt>
  422b1d:	b8 ff ff ff ff       	mov    $0xffffffff,%eax
  422b22:	e9 84 01 00 00       	jmpq   422cab <submitr+0x724>
  422b27:	0f b6 84 24 30 60 00 	movzbl 0x6030(%rsp),%eax
  422b2e:	00 
  422b2f:	83 e8 0d             	sub    $0xd,%eax
  422b32:	75 15                	jne    422b49 <submitr+0x5c2>
  422b34:	0f b6 84 24 31 60 00 	movzbl 0x6031(%rsp),%eax
  422b3b:	00 
  422b3c:	83 e8 0a             	sub    $0xa,%eax
  422b3f:	75 08                	jne    422b49 <submitr+0x5c2>
  422b41:	0f b6 84 24 32 60 00 	movzbl 0x6032(%rsp),%eax
  422b48:	00 
  422b49:	85 c0                	test   %eax,%eax
  422b4b:	0f 85 41 ff ff ff    	jne    422a92 <submitr+0x50b>
  422b51:	ba 00 20 00 00       	mov    $0x2000,%edx
  422b56:	48 8d b4 24 30 60 00 	lea    0x6030(%rsp),%rsi
  422b5d:	00 
  422b5e:	48 8d bc 24 30 80 00 	lea    0x8030(%rsp),%rdi
  422b65:	00 
  422b66:	e8 99 f9 ff ff       	callq  422504 <rio_readlineb>
  422b6b:	48 85 c0             	test   %rax,%rax
  422b6e:	0f 8f 80 00 00 00    	jg     422bf4 <submitr+0x66d>
  422b74:	48 b8 45 72 72 6f 72 	movabs $0x43203a726f727245,%rax
  422b7b:	3a 20 43 
  422b7e:	48 89 03             	mov    %rax,(%rbx)
  422b81:	48 b8 6c 69 65 6e 74 	movabs $0x6e7520746e65696c,%rax
  422b88:	20 75 6e 
  422b8b:	48 89 43 08          	mov    %rax,0x8(%rbx)
  422b8f:	48 b8 61 62 6c 65 20 	movabs $0x206f7420656c6261,%rax
  422b96:	74 6f 20 
  422b99:	48 89 43 10          	mov    %rax,0x10(%rbx)
  422b9d:	48 b8 72 65 61 64 20 	movabs $0x6174732064616572,%rax
  422ba4:	73 74 61 
  422ba7:	48 89 43 18          	mov    %rax,0x18(%rbx)
  422bab:	48 b8 74 75 73 20 6d 	movabs $0x7373656d20737574,%rax
  422bb2:	65 73 73 
  422bb5:	48 89 43 20          	mov    %rax,0x20(%rbx)
  422bb9:	48 b8 61 67 65 20 66 	movabs $0x6d6f726620656761,%rax
  422bc0:	72 6f 6d 
  422bc3:	48 89 43 28          	mov    %rax,0x28(%rbx)
  422bc7:	48 b8 20 41 75 74 6f 	movabs $0x62616c6f74754120,%rax
  422bce:	6c 61 62 
  422bd1:	48 89 43 30          	mov    %rax,0x30(%rbx)
  422bd5:	48 b8 20 73 65 72 76 	movabs $0x72657672657320,%rax
  422bdc:	65 72 00 
  422bdf:	48 89 43 38          	mov    %rax,0x38(%rbx)
  422be3:	89 ef                	mov    %ebp,%edi
  422be5:	e8 86 e1 fd ff       	callq  400d70 <close@plt>
  422bea:	b8 ff ff ff ff       	mov    $0xffffffff,%eax
  422bef:	e9 b7 00 00 00       	jmpq   422cab <submitr+0x724>
  422bf4:	8b 94 24 2c 20 00 00 	mov    0x202c(%rsp),%edx
  422bfb:	81 fa c8 00 00 00    	cmp    $0xc8,%edx
  422c01:	74 28                	je     422c2b <submitr+0x6a4>
  422c03:	48 8d 4c 24 20       	lea    0x20(%rsp),%rcx
  422c08:	be 78 3b 42 00       	mov    $0x423b78,%esi
  422c0d:	48 89 df             	mov    %rbx,%rdi
  422c10:	b8 00 00 00 00       	mov    $0x0,%eax
  422c15:	e8 46 e2 fd ff       	callq  400e60 <sprintf@plt>
  422c1a:	89 ef                	mov    %ebp,%edi
  422c1c:	e8 4f e1 fd ff       	callq  400d70 <close@plt>
  422c21:	b8 ff ff ff ff       	mov    $0xffffffff,%eax
  422c26:	e9 80 00 00 00       	jmpq   422cab <submitr+0x724>
  422c2b:	48 8d b4 24 30 60 00 	lea    0x6030(%rsp),%rsi
  422c32:	00 
  422c33:	48 89 df             	mov    %rbx,%rdi
  422c36:	e8 c5 e2 fd ff       	callq  400f00 <strcpy@plt>
  422c3b:	89 ef                	mov    %ebp,%edi
  422c3d:	e8 2e e1 fd ff       	callq  400d70 <close@plt>
  422c42:	0f b6 03             	movzbl (%rbx),%eax
  422c45:	83 e8 4f             	sub    $0x4f,%eax
  422c48:	75 18                	jne    422c62 <submitr+0x6db>
  422c4a:	0f b6 53 01          	movzbl 0x1(%rbx),%edx
  422c4e:	83 ea 4b             	sub    $0x4b,%edx
  422c51:	75 11                	jne    422c64 <submitr+0x6dd>
  422c53:	0f b6 53 02          	movzbl 0x2(%rbx),%edx
  422c57:	83 ea 0a             	sub    $0xa,%edx
  422c5a:	75 08                	jne    422c64 <submitr+0x6dd>
  422c5c:	0f b6 53 03          	movzbl 0x3(%rbx),%edx
  422c60:	eb 02                	jmp    422c64 <submitr+0x6dd>
  422c62:	89 c2                	mov    %eax,%edx
  422c64:	85 d2                	test   %edx,%edx
  422c66:	74 30                	je     422c98 <submitr+0x711>
  422c68:	bf bd 3b 42 00       	mov    $0x423bbd,%edi
  422c6d:	b9 05 00 00 00       	mov    $0x5,%ecx
  422c72:	48 89 de             	mov    %rbx,%rsi
  422c75:	f3 a6                	repz cmpsb %es:(%rdi),%ds:(%rsi)
  422c77:	0f 97 c1             	seta   %cl
  422c7a:	0f 92 c2             	setb   %dl
  422c7d:	38 d1                	cmp    %dl,%cl
  422c7f:	74 1e                	je     422c9f <submitr+0x718>
  422c81:	85 c0                	test   %eax,%eax
  422c83:	75 0d                	jne    422c92 <submitr+0x70b>
  422c85:	0f b6 43 01          	movzbl 0x1(%rbx),%eax
  422c89:	83 e8 4b             	sub    $0x4b,%eax
  422c8c:	75 04                	jne    422c92 <submitr+0x70b>
  422c8e:	0f b6 43 02          	movzbl 0x2(%rbx),%eax
  422c92:	85 c0                	test   %eax,%eax
  422c94:	75 10                	jne    422ca6 <submitr+0x71f>
  422c96:	eb 13                	jmp    422cab <submitr+0x724>
  422c98:	b8 00 00 00 00       	mov    $0x0,%eax
  422c9d:	eb 0c                	jmp    422cab <submitr+0x724>
  422c9f:	b8 00 00 00 00       	mov    $0x0,%eax
  422ca4:	eb 05                	jmp    422cab <submitr+0x724>
  422ca6:	b8 ff ff ff ff       	mov    $0xffffffff,%eax
  422cab:	48 81 c4 58 a0 00 00 	add    $0xa058,%rsp
  422cb2:	5b                   	pop    %rbx
  422cb3:	5d                   	pop    %rbp
  422cb4:	41 5c                	pop    %r12
  422cb6:	41 5d                	pop    %r13
  422cb8:	41 5e                	pop    %r14
  422cba:	41 5f                	pop    %r15
  422cbc:	c3                   	retq   

0000000000422cbd <init_timeout>:
  422cbd:	53                   	push   %rbx
  422cbe:	89 fb                	mov    %edi,%ebx
  422cc0:	85 ff                	test   %edi,%edi
  422cc2:	74 1f                	je     422ce3 <init_timeout+0x26>
  422cc4:	85 ff                	test   %edi,%edi
  422cc6:	79 05                	jns    422ccd <init_timeout+0x10>
  422cc8:	bb 00 00 00 00       	mov    $0x0,%ebx
  422ccd:	be 22 23 42 00       	mov    $0x422322,%esi
  422cd2:	bf 0e 00 00 00       	mov    $0xe,%edi
  422cd7:	e8 d4 e1 fd ff       	callq  400eb0 <signal@plt>
  422cdc:	89 df                	mov    %ebx,%edi
  422cde:	e8 ed e1 fd ff       	callq  400ed0 <alarm@plt>
  422ce3:	5b                   	pop    %rbx
  422ce4:	c3                   	retq   

0000000000422ce5 <init_driver>:
  422ce5:	55                   	push   %rbp
  422ce6:	53                   	push   %rbx
  422ce7:	48 83 ec 18          	sub    $0x18,%rsp
  422ceb:	48 89 fd             	mov    %rdi,%rbp
  422cee:	be 01 00 00 00       	mov    $0x1,%esi
  422cf3:	bf 0d 00 00 00       	mov    $0xd,%edi
  422cf8:	e8 b3 e1 fd ff       	callq  400eb0 <signal@plt>
  422cfd:	be 01 00 00 00       	mov    $0x1,%esi
  422d02:	bf 1d 00 00 00       	mov    $0x1d,%edi
  422d07:	e8 a4 e1 fd ff       	callq  400eb0 <signal@plt>
  422d0c:	be 01 00 00 00       	mov    $0x1,%esi
  422d11:	bf 1d 00 00 00       	mov    $0x1d,%edi
  422d16:	e8 95 e1 fd ff       	callq  400eb0 <signal@plt>
  422d1b:	ba 00 00 00 00       	mov    $0x0,%edx
  422d20:	be 01 00 00 00       	mov    $0x1,%esi
  422d25:	bf 02 00 00 00       	mov    $0x2,%edi
  422d2a:	e8 91 e1 fd ff       	callq  400ec0 <socket@plt>
  422d2f:	89 c3                	mov    %eax,%ebx
  422d31:	85 c0                	test   %eax,%eax
  422d33:	79 4f                	jns    422d84 <init_driver+0x9f>
  422d35:	48 b8 45 72 72 6f 72 	movabs $0x43203a726f727245,%rax
  422d3c:	3a 20 43 
  422d3f:	48 89 45 00          	mov    %rax,0x0(%rbp)
  422d43:	48 b8 6c 69 65 6e 74 	movabs $0x6e7520746e65696c,%rax
  422d4a:	20 75 6e 
  422d4d:	48 89 45 08          	mov    %rax,0x8(%rbp)
  422d51:	48 b8 61 62 6c 65 20 	movabs $0x206f7420656c6261,%rax
  422d58:	74 6f 20 
  422d5b:	48 89 45 10          	mov    %rax,0x10(%rbp)
  422d5f:	48 b8 63 72 65 61 74 	movabs $0x7320657461657263,%rax
  422d66:	65 20 73 
  422d69:	48 89 45 18          	mov    %rax,0x18(%rbp)
  422d6d:	c7 45 20 6f 63 6b 65 	movl   $0x656b636f,0x20(%rbp)
  422d74:	66 c7 45 24 74 00    	movw   $0x74,0x24(%rbp)
  422d7a:	b8 ff ff ff ff       	mov    $0xffffffff,%eax
  422d7f:	e9 23 01 00 00       	jmpq   422ea7 <init_driver+0x1c2>
  422d84:	bf c2 3b 42 00       	mov    $0x423bc2,%edi
  422d89:	e8 f2 df fd ff       	callq  400d80 <gethostbyname@plt>
  422d8e:	48 85 c0             	test   %rax,%rax
  422d91:	75 68                	jne    422dfb <init_driver+0x116>
  422d93:	48 b8 45 72 72 6f 72 	movabs $0x44203a726f727245,%rax
  422d9a:	3a 20 44 
  422d9d:	48 89 45 00          	mov    %rax,0x0(%rbp)
  422da1:	48 b8 4e 53 20 69 73 	movabs $0x6e7520736920534e,%rax
  422da8:	20 75 6e 
  422dab:	48 89 45 08          	mov    %rax,0x8(%rbp)
  422daf:	48 b8 61 62 6c 65 20 	movabs $0x206f7420656c6261,%rax
  422db6:	74 6f 20 
  422db9:	48 89 45 10          	mov    %rax,0x10(%rbp)
  422dbd:	48 b8 72 65 73 6f 6c 	movabs $0x2065766c6f736572,%rax
  422dc4:	76 65 20 
  422dc7:	48 89 45 18          	mov    %rax,0x18(%rbp)
  422dcb:	48 b8 73 65 72 76 65 	movabs $0x6120726576726573,%rax
  422dd2:	72 20 61 
  422dd5:	48 89 45 20          	mov    %rax,0x20(%rbp)
  422dd9:	c7 45 28 64 64 72 65 	movl   $0x65726464,0x28(%rbp)
  422de0:	66 c7 45 2c 73 73    	movw   $0x7373,0x2c(%rbp)
  422de6:	c6 45 2e 00          	movb   $0x0,0x2e(%rbp)
  422dea:	89 df                	mov    %ebx,%edi
  422dec:	e8 7f df fd ff       	callq  400d70 <close@plt>
  422df1:	b8 ff ff ff ff       	mov    $0xffffffff,%eax
  422df6:	e9 ac 00 00 00       	jmpq   422ea7 <init_driver+0x1c2>
  422dfb:	48 c7 04 24 00 00 00 	movq   $0x0,(%rsp)
  422e02:	00 
  422e03:	48 c7 44 24 08 00 00 	movq   $0x0,0x8(%rsp)
  422e0a:	00 00 
  422e0c:	66 c7 04 24 02 00    	movw   $0x2,(%rsp)
  422e12:	48 8b 48 18          	mov    0x18(%rax),%rcx
  422e16:	48 63 50 14          	movslq 0x14(%rax),%rdx
  422e1a:	48 8d 74 24 04       	lea    0x4(%rsp),%rsi
  422e1f:	48 8b 39             	mov    (%rcx),%rdi
  422e22:	e8 29 e0 fd ff       	callq  400e50 <bcopy@plt>
  422e27:	66 c7 44 24 02 00 50 	movw   $0x5000,0x2(%rsp)
  422e2e:	ba 10 00 00 00       	mov    $0x10,%edx
  422e33:	48 89 e6             	mov    %rsp,%rsi
  422e36:	89 df                	mov    %ebx,%edi
  422e38:	e8 53 e0 fd ff       	callq  400e90 <connect@plt>
  422e3d:	85 c0                	test   %eax,%eax
  422e3f:	79 50                	jns    422e91 <init_driver+0x1ac>
  422e41:	48 b8 45 72 72 6f 72 	movabs $0x55203a726f727245,%rax
  422e48:	3a 20 55 
  422e4b:	48 89 45 00          	mov    %rax,0x0(%rbp)
  422e4f:	48 b8 6e 61 62 6c 65 	movabs $0x6f7420656c62616e,%rax
  422e56:	20 74 6f 
  422e59:	48 89 45 08          	mov    %rax,0x8(%rbp)
  422e5d:	48 b8 20 63 6f 6e 6e 	movabs $0x7463656e6e6f6320,%rax
  422e64:	65 63 74 
  422e67:	48 89 45 10          	mov    %rax,0x10(%rbp)
  422e6b:	48 b8 20 74 6f 20 73 	movabs $0x76726573206f7420,%rax
  422e72:	65 72 76 
  422e75:	48 89 45 18          	mov    %rax,0x18(%rbp)
  422e79:	66 c7 45 20 65 72    	movw   $0x7265,0x20(%rbp)
  422e7f:	c6 45 22 00          	movb   $0x0,0x22(%rbp)
  422e83:	89 df                	mov    %ebx,%edi
  422e85:	e8 e6 de fd ff       	callq  400d70 <close@plt>
  422e8a:	b8 ff ff ff ff       	mov    $0xffffffff,%eax
  422e8f:	eb 16                	jmp    422ea7 <init_driver+0x1c2>
  422e91:	89 df                	mov    %ebx,%edi
  422e93:	e8 d8 de fd ff       	callq  400d70 <close@plt>
  422e98:	66 c7 45 00 4f 4b    	movw   $0x4b4f,0x0(%rbp)
  422e9e:	c6 45 02 00          	movb   $0x0,0x2(%rbp)
  422ea2:	b8 00 00 00 00       	mov    $0x0,%eax
  422ea7:	48 83 c4 18          	add    $0x18,%rsp
  422eab:	5b                   	pop    %rbx
  422eac:	5d                   	pop    %rbp
  422ead:	c3                   	retq   

0000000000422eae <driver_post>:
  422eae:	53                   	push   %rbx
  422eaf:	48 83 ec 10          	sub    $0x10,%rsp
  422eb3:	4c 89 cb             	mov    %r9,%rbx
  422eb6:	45 85 c0             	test   %r8d,%r8d
  422eb9:	74 22                	je     422edd <driver_post+0x2f>
  422ebb:	48 89 ce             	mov    %rcx,%rsi
  422ebe:	bf d9 3b 42 00       	mov    $0x423bd9,%edi
  422ec3:	b8 00 00 00 00       	mov    $0x0,%eax
  422ec8:	e8 83 de fd ff       	callq  400d50 <printf@plt>
  422ecd:	66 c7 03 4f 4b       	movw   $0x4b4f,(%rbx)
  422ed2:	c6 43 02 00          	movb   $0x0,0x2(%rbx)
  422ed6:	b8 00 00 00 00       	mov    $0x0,%eax
  422edb:	eb 39                	jmp    422f16 <driver_post+0x68>
  422edd:	48 85 ff             	test   %rdi,%rdi
  422ee0:	74 26                	je     422f08 <driver_post+0x5a>
  422ee2:	80 3f 00             	cmpb   $0x0,(%rdi)
  422ee5:	74 21                	je     422f08 <driver_post+0x5a>
  422ee7:	4c 89 0c 24          	mov    %r9,(%rsp)
  422eeb:	49 89 c9             	mov    %rcx,%r9
  422eee:	49 89 d0             	mov    %rdx,%r8
  422ef1:	48 89 f9             	mov    %rdi,%rcx
  422ef4:	48 89 f2             	mov    %rsi,%rdx
  422ef7:	be 50 00 00 00       	mov    $0x50,%esi
  422efc:	bf c2 3b 42 00       	mov    $0x423bc2,%edi
  422f01:	e8 81 f6 ff ff       	callq  422587 <submitr>
  422f06:	eb 0e                	jmp    422f16 <driver_post+0x68>
  422f08:	66 c7 03 4f 4b       	movw   $0x4b4f,(%rbx)
  422f0d:	c6 43 02 00          	movb   $0x0,0x2(%rbx)
  422f11:	b8 00 00 00 00       	mov    $0x0,%eax
  422f16:	48 83 c4 10          	add    $0x10,%rsp
  422f1a:	5b                   	pop    %rbx
  422f1b:	c3                   	retq   

0000000000422f1c <check>:
  422f1c:	89 f8                	mov    %edi,%eax
  422f1e:	c1 e8 1c             	shr    $0x1c,%eax
  422f21:	85 c0                	test   %eax,%eax
  422f23:	74 1d                	je     422f42 <check+0x26>
  422f25:	b9 00 00 00 00       	mov    $0x0,%ecx
  422f2a:	eb 0b                	jmp    422f37 <check+0x1b>
  422f2c:	89 f8                	mov    %edi,%eax
  422f2e:	d3 e8                	shr    %cl,%eax
  422f30:	3c 0a                	cmp    $0xa,%al
  422f32:	74 14                	je     422f48 <check+0x2c>
  422f34:	83 c1 08             	add    $0x8,%ecx
  422f37:	83 f9 1f             	cmp    $0x1f,%ecx
  422f3a:	7e f0                	jle    422f2c <check+0x10>
  422f3c:	b8 01 00 00 00       	mov    $0x1,%eax
  422f41:	c3                   	retq   
  422f42:	b8 00 00 00 00       	mov    $0x0,%eax
  422f47:	c3                   	retq   
  422f48:	b8 00 00 00 00       	mov    $0x0,%eax
  422f4d:	c3                   	retq   

0000000000422f4e <gencookie>:
  422f4e:	53                   	push   %rbx
  422f4f:	83 c7 01             	add    $0x1,%edi
  422f52:	e8 c9 de fd ff       	callq  400e20 <srandom@plt>
  422f57:	e8 c4 df fd ff       	callq  400f20 <random@plt>
  422f5c:	89 c3                	mov    %eax,%ebx
  422f5e:	89 c7                	mov    %eax,%edi
  422f60:	e8 b7 ff ff ff       	callq  422f1c <check>
  422f65:	85 c0                	test   %eax,%eax
  422f67:	74 ee                	je     422f57 <gencookie+0x9>
  422f69:	89 d8                	mov    %ebx,%eax
  422f6b:	5b                   	pop    %rbx
  422f6c:	c3                   	retq   

0000000000422f6d <checkhash>:
  422f6d:	53                   	push   %rbx
  422f6e:	48 81 ec f0 00 00 00 	sub    $0xf0,%rsp
  422f75:	48 b8 66 31 39 2d 31 	movabs $0x313235312d393166,%rax
  422f7c:	35 32 31 
  422f7f:	48 89 84 24 e0 00 00 	mov    %rax,0xe0(%rsp)
  422f86:	00 
  422f87:	66 c7 84 24 e8 00 00 	movw   $0x33,0xe8(%rsp)
  422f8e:	00 33 00 
  422f91:	48 b8 61 74 74 61 63 	movabs $0x616c6b6361747461,%rax
  422f98:	6b 6c 61 
  422f9b:	48 89 84 24 d0 00 00 	mov    %rax,0xd0(%rsp)
  422fa2:	00 
  422fa3:	66 c7 84 24 d8 00 00 	movw   $0x62,0xd8(%rsp)
  422faa:	00 62 00 
  422fad:	48 b8 42 4f 4f 47 41 	movabs $0x4f4f4241474f4f42,%rax
  422fb4:	42 4f 4f 
  422fb7:	48 89 84 24 c0 00 00 	mov    %rax,0xc0(%rsp)
  422fbe:	00 
  422fbf:	66 c7 84 24 c8 00 00 	movw   $0x4147,0xc8(%rsp)
  422fc6:	00 47 41 
  422fc9:	c6 84 24 ca 00 00 00 	movb   $0x0,0xca(%rsp)
  422fd0:	00 
  422fd1:	48 b8 6b 65 79 2e 74 	movabs $0x7478742e79656b,%rax
  422fd8:	78 74 00 
  422fdb:	48 89 84 24 b0 00 00 	mov    %rax,0xb0(%rsp)
  422fe2:	00 
  422fe3:	be 9d 38 42 00       	mov    $0x42389d,%esi
  422fe8:	48 8d bc 24 b0 00 00 	lea    0xb0(%rsp),%rdi
  422fef:	00 
  422ff0:	e8 0b de fd ff       	callq  400e00 <fopen@plt>
  422ff5:	48 89 c3             	mov    %rax,%rbx
  422ff8:	48 85 c0             	test   %rax,%rax
  422ffb:	75 21                	jne    42301e <checkhash+0xb1>
  422ffd:	48 8d b4 24 b0 00 00 	lea    0xb0(%rsp),%rsi
  423004:	00 
  423005:	bf f8 3b 42 00       	mov    $0x423bf8,%edi
  42300a:	b8 00 00 00 00       	mov    $0x0,%eax
  42300f:	e8 3c dd fd ff       	callq  400d50 <printf@plt>
  423014:	bf 01 00 00 00       	mov    $0x1,%edi
  423019:	e8 92 dd fd ff       	callq  400db0 <exit@plt>
  42301e:	48 89 c2             	mov    %rax,%rdx
  423021:	be 0a 00 00 00       	mov    $0xa,%esi
  423026:	48 8d bc 24 a0 00 00 	lea    0xa0(%rsp),%rdi
  42302d:	00 
  42302e:	e8 fd dd fd ff       	callq  400e30 <fgets@plt>
  423033:	48 85 c0             	test   %rax,%rax
  423036:	75 1c                	jne    423054 <checkhash+0xe7>
  423038:	48 8d b4 24 b0 00 00 	lea    0xb0(%rsp),%rsi
  42303f:	00 
  423040:	bf 30 3c 42 00       	mov    $0x423c30,%edi
  423045:	e8 06 dd fd ff       	callq  400d50 <printf@plt>
  42304a:	bf 01 00 00 00       	mov    $0x1,%edi
  42304f:	e8 5c dd fd ff       	callq  400db0 <exit@plt>
  423054:	48 8d bc 24 a0 00 00 	lea    0xa0(%rsp),%rdi
  42305b:	00 
  42305c:	b8 00 00 00 00       	mov    $0x0,%eax
  423061:	48 c7 c1 ff ff ff ff 	mov    $0xffffffffffffffff,%rcx
  423068:	f2 ae                	repnz scas %es:(%rdi),%al
  42306a:	48 f7 d1             	not    %rcx
  42306d:	48 83 e9 02          	sub    $0x2,%rcx
  423071:	80 bc 0c a0 00 00 00 	cmpb   $0xa,0xa0(%rsp,%rcx,1)
  423078:	0a 
  423079:	75 08                	jne    423083 <checkhash+0x116>
  42307b:	c6 84 0c a0 00 00 00 	movb   $0x0,0xa0(%rsp,%rcx,1)
  423082:	00 
  423083:	48 89 da             	mov    %rbx,%rdx
  423086:	be 21 00 00 00       	mov    $0x21,%esi
  42308b:	48 89 e7             	mov    %rsp,%rdi
  42308e:	e8 9d dd fd ff       	callq  400e30 <fgets@plt>
  423093:	48 85 c0             	test   %rax,%rax
  423096:	75 1c                	jne    4230b4 <checkhash+0x147>
  423098:	48 8d b4 24 b0 00 00 	lea    0xb0(%rsp),%rsi
  42309f:	00 
  4230a0:	bf 58 3c 42 00       	mov    $0x423c58,%edi
  4230a5:	e8 a6 dc fd ff       	callq  400d50 <printf@plt>
  4230aa:	bf 01 00 00 00       	mov    $0x1,%edi
  4230af:	e8 fc dc fd ff       	callq  400db0 <exit@plt>
  4230b4:	48 89 e7             	mov    %rsp,%rdi
  4230b7:	b8 00 00 00 00       	mov    $0x0,%eax
  4230bc:	48 c7 c1 ff ff ff ff 	mov    $0xffffffffffffffff,%rcx
  4230c3:	f2 ae                	repnz scas %es:(%rdi),%al
  4230c5:	48 f7 d1             	not    %rcx
  4230c8:	48 83 e9 02          	sub    $0x2,%rcx
  4230cc:	80 3c 0c 0a          	cmpb   $0xa,(%rsp,%rcx,1)
  4230d0:	75 04                	jne    4230d6 <checkhash+0x169>
  4230d2:	c6 04 0c 00          	movb   $0x0,(%rsp,%rcx,1)
  4230d6:	c6 44 24 60 00       	movb   $0x0,0x60(%rsp)
  4230db:	48 8d b4 24 e0 00 00 	lea    0xe0(%rsp),%rsi
  4230e2:	00 
  4230e3:	48 8d 7c 24 60       	lea    0x60(%rsp),%rdi
  4230e8:	e8 83 dd fd ff       	callq  400e70 <strcat@plt>
  4230ed:	48 8d b4 24 d0 00 00 	lea    0xd0(%rsp),%rsi
  4230f4:	00 
  4230f5:	48 8d 7c 24 60       	lea    0x60(%rsp),%rdi
  4230fa:	e8 71 dd fd ff       	callq  400e70 <strcat@plt>
  4230ff:	48 8d b4 24 a0 00 00 	lea    0xa0(%rsp),%rsi
  423106:	00 
  423107:	48 8d 7c 24 60       	lea    0x60(%rsp),%rdi
  42310c:	e8 5f dd fd ff       	callq  400e70 <strcat@plt>
  423111:	48 8d b4 24 c0 00 00 	lea    0xc0(%rsp),%rsi
  423118:	00 
  423119:	48 8d 7c 24 60       	lea    0x60(%rsp),%rdi
  42311e:	e8 4d dd fd ff       	callq  400e70 <strcat@plt>
  423123:	48 8d 7c 24 60       	lea    0x60(%rsp),%rdi
  423128:	b8 00 00 00 00       	mov    $0x0,%eax
  42312d:	48 c7 c1 ff ff ff ff 	mov    $0xffffffffffffffff,%rcx
  423134:	f2 ae                	repnz scas %es:(%rdi),%al
  423136:	48 f7 d1             	not    %rcx
  423139:	48 8d 71 ff          	lea    -0x1(%rcx),%rsi
  42313d:	48 8d 94 24 90 00 00 	lea    0x90(%rsp),%rdx
  423144:	00 
  423145:	48 8d 7c 24 60       	lea    0x60(%rsp),%rdi
  42314a:	e8 f1 db fd ff       	callq  400d40 <MD5@plt>
  42314f:	bb 00 00 00 00       	mov    $0x0,%ebx
  423154:	eb 43                	jmp    423199 <checkhash+0x22c>
  423156:	48 63 c3             	movslq %ebx,%rax
  423159:	8d 3c 1b             	lea    (%rbx,%rbx,1),%edi
  42315c:	0f b6 94 04 90 00 00 	movzbl 0x90(%rsp,%rax,1),%edx
  423163:	00 
  423164:	48 63 ff             	movslq %edi,%rdi
  423167:	48 8d 44 24 30       	lea    0x30(%rsp),%rax
  42316c:	48 01 c7             	add    %rax,%rdi
  42316f:	be f0 3b 42 00       	mov    $0x423bf0,%esi
  423174:	b8 00 00 00 00       	mov    $0x0,%eax
  423179:	e8 e2 dc fd ff       	callq  400e60 <sprintf@plt>
  42317e:	85 c0                	test   %eax,%eax
  423180:	79 14                	jns    423196 <checkhash+0x229>
  423182:	bf 80 3c 42 00       	mov    $0x423c80,%edi
  423187:	e8 04 dc fd ff       	callq  400d90 <puts@plt>
  42318c:	bf 01 00 00 00       	mov    $0x1,%edi
  423191:	e8 1a dc fd ff       	callq  400db0 <exit@plt>
  423196:	83 c3 01             	add    $0x1,%ebx
  423199:	83 fb 0f             	cmp    $0xf,%ebx
  42319c:	76 b8                	jbe    423156 <checkhash+0x1e9>
  42319e:	48 89 e6             	mov    %rsp,%rsi
  4231a1:	48 8d 7c 24 30       	lea    0x30(%rsp),%rdi
  4231a6:	e8 45 dd fd ff       	callq  400ef0 <strcmp@plt>
  4231ab:	85 c0                	test   %eax,%eax
  4231ad:	75 04                	jne    4231b3 <checkhash+0x246>
  4231af:	b0 01                	mov    $0x1,%al
  4231b1:	eb 05                	jmp    4231b8 <checkhash+0x24b>
  4231b3:	b8 00 00 00 00       	mov    $0x0,%eax
  4231b8:	48 81 c4 f0 00 00 00 	add    $0xf0,%rsp
  4231bf:	5b                   	pop    %rbx
  4231c0:	c3                   	retq   
  4231c1:	66 2e 0f 1f 84 00 00 	nopw   %cs:0x0(%rax,%rax,1)
  4231c8:	00 00 00 
  4231cb:	0f 1f 44 00 00       	nopl   0x0(%rax,%rax,1)

00000000004231d0 <__libc_csu_init>:
  4231d0:	41 57                	push   %r15
  4231d2:	41 89 ff             	mov    %edi,%r15d
  4231d5:	41 56                	push   %r14
  4231d7:	49 89 f6             	mov    %rsi,%r14
  4231da:	41 55                	push   %r13
  4231dc:	49 89 d5             	mov    %rdx,%r13
  4231df:	41 54                	push   %r12
  4231e1:	4c 8d 25 18 1c 20 00 	lea    0x201c18(%rip),%r12        # 624e00 <__frame_dummy_init_array_entry>
  4231e8:	55                   	push   %rbp
  4231e9:	48 8d 2d 18 1c 20 00 	lea    0x201c18(%rip),%rbp        # 624e08 <__init_array_end>
  4231f0:	53                   	push   %rbx
  4231f1:	4c 29 e5             	sub    %r12,%rbp
  4231f4:	31 db                	xor    %ebx,%ebx
  4231f6:	48 c1 fd 03          	sar    $0x3,%rbp
  4231fa:	48 83 ec 08          	sub    $0x8,%rsp
  4231fe:	e8 05 db fd ff       	callq  400d08 <_init>
  423203:	48 85 ed             	test   %rbp,%rbp
  423206:	74 1e                	je     423226 <__libc_csu_init+0x56>
  423208:	0f 1f 84 00 00 00 00 	nopl   0x0(%rax,%rax,1)
  42320f:	00 
  423210:	4c 89 ea             	mov    %r13,%rdx
  423213:	4c 89 f6             	mov    %r14,%rsi
  423216:	44 89 ff             	mov    %r15d,%edi
  423219:	41 ff 14 dc          	callq  *(%r12,%rbx,8)
  42321d:	48 83 c3 01          	add    $0x1,%rbx
  423221:	48 39 eb             	cmp    %rbp,%rbx
  423224:	75 ea                	jne    423210 <__libc_csu_init+0x40>
  423226:	48 83 c4 08          	add    $0x8,%rsp
  42322a:	5b                   	pop    %rbx
  42322b:	5d                   	pop    %rbp
  42322c:	41 5c                	pop    %r12
  42322e:	41 5d                	pop    %r13
  423230:	41 5e                	pop    %r14
  423232:	41 5f                	pop    %r15
  423234:	c3                   	retq   
  423235:	90                   	nop
  423236:	66 2e 0f 1f 84 00 00 	nopw   %cs:0x0(%rax,%rax,1)
  42323d:	00 00 00 

0000000000423240 <__libc_csu_fini>:
  423240:	f3 c3                	repz retq 

Disassembly of section .init:

0000000000400d08 <_init>:
  400d08:	48 83 ec 08          	sub    $0x8,%rsp
  400d0c:	48 8b 05 e5 42 22 00 	mov    0x2242e5(%rip),%rax        # 624ff8 <__gmon_start__>
  400d13:	48 85 c0             	test   %rax,%rax
  400d16:	74 05                	je     400d1d <_init+0x15>
  400d18:	e8 73 02 00 00       	callq  400f90 <.plt.got>
  400d1d:	48 83 c4 08          	add    $0x8,%rsp
  400d21:	c3                   	retq   

Disassembly of section .plt:

0000000000400d30 <.plt>:
  400d30:	ff 35 d2 42 22 00    	pushq  0x2242d2(%rip)        # 625008 <_GLOBAL_OFFSET_TABLE_+0x8>
  400d36:	ff 25 d4 42 22 00    	jmpq   *0x2242d4(%rip)        # 625010 <_GLOBAL_OFFSET_TABLE_+0x10>
  400d3c:	0f 1f 40 00          	nopl   0x0(%rax)

0000000000400d40 <MD5@plt>:
  400d40:	ff 25 d2 42 22 00    	jmpq   *0x2242d2(%rip)        # 625018 <MD5@libcrypto.so.10>
  400d46:	68 00 00 00 00       	pushq  $0x0
  400d4b:	e9 e0 ff ff ff       	jmpq   400d30 <.plt>

0000000000400d50 <printf@plt>:
  400d50:	ff 25 ca 42 22 00    	jmpq   *0x2242ca(%rip)        # 625020 <printf@GLIBC_2.2.5>
  400d56:	68 01 00 00 00       	pushq  $0x1
  400d5b:	e9 d0 ff ff ff       	jmpq   400d30 <.plt>

0000000000400d60 <memset@plt>:
  400d60:	ff 25 c2 42 22 00    	jmpq   *0x2242c2(%rip)        # 625028 <memset@GLIBC_2.2.5>
  400d66:	68 02 00 00 00       	pushq  $0x2
  400d6b:	e9 c0 ff ff ff       	jmpq   400d30 <.plt>

0000000000400d70 <close@plt>:
  400d70:	ff 25 ba 42 22 00    	jmpq   *0x2242ba(%rip)        # 625030 <close@GLIBC_2.2.5>
  400d76:	68 03 00 00 00       	pushq  $0x3
  400d7b:	e9 b0 ff ff ff       	jmpq   400d30 <.plt>

0000000000400d80 <gethostbyname@plt>:
  400d80:	ff 25 b2 42 22 00    	jmpq   *0x2242b2(%rip)        # 625038 <gethostbyname@GLIBC_2.2.5>
  400d86:	68 04 00 00 00       	pushq  $0x4
  400d8b:	e9 a0 ff ff ff       	jmpq   400d30 <.plt>

0000000000400d90 <puts@plt>:
  400d90:	ff 25 aa 42 22 00    	jmpq   *0x2242aa(%rip)        # 625040 <puts@GLIBC_2.2.5>
  400d96:	68 05 00 00 00       	pushq  $0x5
  400d9b:	e9 90 ff ff ff       	jmpq   400d30 <.plt>

0000000000400da0 <__isoc99_sscanf@plt>:
  400da0:	ff 25 a2 42 22 00    	jmpq   *0x2242a2(%rip)        # 625048 <__isoc99_sscanf@GLIBC_2.7>
  400da6:	68 06 00 00 00       	pushq  $0x6
  400dab:	e9 80 ff ff ff       	jmpq   400d30 <.plt>

0000000000400db0 <exit@plt>:
  400db0:	ff 25 9a 42 22 00    	jmpq   *0x22429a(%rip)        # 625050 <exit@GLIBC_2.2.5>
  400db6:	68 07 00 00 00       	pushq  $0x7
  400dbb:	e9 70 ff ff ff       	jmpq   400d30 <.plt>

0000000000400dc0 <strcasecmp@plt>:
  400dc0:	ff 25 92 42 22 00    	jmpq   *0x224292(%rip)        # 625058 <strcasecmp@GLIBC_2.2.5>
  400dc6:	68 08 00 00 00       	pushq  $0x8
  400dcb:	e9 60 ff ff ff       	jmpq   400d30 <.plt>

0000000000400dd0 <getopt@plt>:
  400dd0:	ff 25 8a 42 22 00    	jmpq   *0x22428a(%rip)        # 625060 <getopt@GLIBC_2.2.5>
  400dd6:	68 09 00 00 00       	pushq  $0x9
  400ddb:	e9 50 ff ff ff       	jmpq   400d30 <.plt>

0000000000400de0 <read@plt>:
  400de0:	ff 25 82 42 22 00    	jmpq   *0x224282(%rip)        # 625068 <read@GLIBC_2.2.5>
  400de6:	68 0a 00 00 00       	pushq  $0xa
  400deb:	e9 40 ff ff ff       	jmpq   400d30 <.plt>

0000000000400df0 <strncmp@plt>:
  400df0:	ff 25 7a 42 22 00    	jmpq   *0x22427a(%rip)        # 625070 <strncmp@GLIBC_2.2.5>
  400df6:	68 0b 00 00 00       	pushq  $0xb
  400dfb:	e9 30 ff ff ff       	jmpq   400d30 <.plt>

0000000000400e00 <fopen@plt>:
  400e00:	ff 25 72 42 22 00    	jmpq   *0x224272(%rip)        # 625078 <fopen@GLIBC_2.2.5>
  400e06:	68 0c 00 00 00       	pushq  $0xc
  400e0b:	e9 20 ff ff ff       	jmpq   400d30 <.plt>

0000000000400e10 <__libc_start_main@plt>:
  400e10:	ff 25 6a 42 22 00    	jmpq   *0x22426a(%rip)        # 625080 <__libc_start_main@GLIBC_2.2.5>
  400e16:	68 0d 00 00 00       	pushq  $0xd
  400e1b:	e9 10 ff ff ff       	jmpq   400d30 <.plt>

0000000000400e20 <srandom@plt>:
  400e20:	ff 25 62 42 22 00    	jmpq   *0x224262(%rip)        # 625088 <srandom@GLIBC_2.2.5>
  400e26:	68 0e 00 00 00       	pushq  $0xe
  400e2b:	e9 00 ff ff ff       	jmpq   400d30 <.plt>

0000000000400e30 <fgets@plt>:
  400e30:	ff 25 5a 42 22 00    	jmpq   *0x22425a(%rip)        # 625090 <fgets@GLIBC_2.2.5>
  400e36:	68 0f 00 00 00       	pushq  $0xf
  400e3b:	e9 f0 fe ff ff       	jmpq   400d30 <.plt>

0000000000400e40 <_IO_getc@plt>:
  400e40:	ff 25 52 42 22 00    	jmpq   *0x224252(%rip)        # 625098 <_IO_getc@GLIBC_2.2.5>
  400e46:	68 10 00 00 00       	pushq  $0x10
  400e4b:	e9 e0 fe ff ff       	jmpq   400d30 <.plt>

0000000000400e50 <bcopy@plt>:
  400e50:	ff 25 4a 42 22 00    	jmpq   *0x22424a(%rip)        # 6250a0 <bcopy@GLIBC_2.2.5>
  400e56:	68 11 00 00 00       	pushq  $0x11
  400e5b:	e9 d0 fe ff ff       	jmpq   400d30 <.plt>

0000000000400e60 <sprintf@plt>:
  400e60:	ff 25 42 42 22 00    	jmpq   *0x224242(%rip)        # 6250a8 <sprintf@GLIBC_2.2.5>
  400e66:	68 12 00 00 00       	pushq  $0x12
  400e6b:	e9 c0 fe ff ff       	jmpq   400d30 <.plt>

0000000000400e70 <strcat@plt>:
  400e70:	ff 25 3a 42 22 00    	jmpq   *0x22423a(%rip)        # 6250b0 <strcat@GLIBC_2.2.5>
  400e76:	68 13 00 00 00       	pushq  $0x13
  400e7b:	e9 b0 fe ff ff       	jmpq   400d30 <.plt>

0000000000400e80 <strtol@plt>:
  400e80:	ff 25 32 42 22 00    	jmpq   *0x224232(%rip)        # 6250b8 <strtol@GLIBC_2.2.5>
  400e86:	68 14 00 00 00       	pushq  $0x14
  400e8b:	e9 a0 fe ff ff       	jmpq   400d30 <.plt>

0000000000400e90 <connect@plt>:
  400e90:	ff 25 2a 42 22 00    	jmpq   *0x22422a(%rip)        # 6250c0 <connect@GLIBC_2.2.5>
  400e96:	68 15 00 00 00       	pushq  $0x15
  400e9b:	e9 90 fe ff ff       	jmpq   400d30 <.plt>

0000000000400ea0 <gethostname@plt>:
  400ea0:	ff 25 22 42 22 00    	jmpq   *0x224222(%rip)        # 6250c8 <gethostname@GLIBC_2.2.5>
  400ea6:	68 16 00 00 00       	pushq  $0x16
  400eab:	e9 80 fe ff ff       	jmpq   400d30 <.plt>

0000000000400eb0 <signal@plt>:
  400eb0:	ff 25 1a 42 22 00    	jmpq   *0x22421a(%rip)        # 6250d0 <signal@GLIBC_2.2.5>
  400eb6:	68 17 00 00 00       	pushq  $0x17
  400ebb:	e9 70 fe ff ff       	jmpq   400d30 <.plt>

0000000000400ec0 <socket@plt>:
  400ec0:	ff 25 12 42 22 00    	jmpq   *0x224212(%rip)        # 6250d8 <socket@GLIBC_2.2.5>
  400ec6:	68 18 00 00 00       	pushq  $0x18
  400ecb:	e9 60 fe ff ff       	jmpq   400d30 <.plt>

0000000000400ed0 <alarm@plt>:
  400ed0:	ff 25 0a 42 22 00    	jmpq   *0x22420a(%rip)        # 6250e0 <alarm@GLIBC_2.2.5>
  400ed6:	68 19 00 00 00       	pushq  $0x19
  400edb:	e9 50 fe ff ff       	jmpq   400d30 <.plt>

0000000000400ee0 <__errno_location@plt>:
  400ee0:	ff 25 02 42 22 00    	jmpq   *0x224202(%rip)        # 6250e8 <__errno_location@GLIBC_2.2.5>
  400ee6:	68 1a 00 00 00       	pushq  $0x1a
  400eeb:	e9 40 fe ff ff       	jmpq   400d30 <.plt>

0000000000400ef0 <strcmp@plt>:
  400ef0:	ff 25 fa 41 22 00    	jmpq   *0x2241fa(%rip)        # 6250f0 <strcmp@GLIBC_2.2.5>
  400ef6:	68 1b 00 00 00       	pushq  $0x1b
  400efb:	e9 30 fe ff ff       	jmpq   400d30 <.plt>

0000000000400f00 <strcpy@plt>:
  400f00:	ff 25 f2 41 22 00    	jmpq   *0x2241f2(%rip)        # 6250f8 <strcpy@GLIBC_2.2.5>
  400f06:	68 1c 00 00 00       	pushq  $0x1c
  400f0b:	e9 20 fe ff ff       	jmpq   400d30 <.plt>

0000000000400f10 <munmap@plt>:
  400f10:	ff 25 ea 41 22 00    	jmpq   *0x2241ea(%rip)        # 625100 <munmap@GLIBC_2.2.5>
  400f16:	68 1d 00 00 00       	pushq  $0x1d
  400f1b:	e9 10 fe ff ff       	jmpq   400d30 <.plt>

0000000000400f20 <random@plt>:
  400f20:	ff 25 e2 41 22 00    	jmpq   *0x2241e2(%rip)        # 625108 <random@GLIBC_2.2.5>
  400f26:	68 1e 00 00 00       	pushq  $0x1e
  400f2b:	e9 00 fe ff ff       	jmpq   400d30 <.plt>

0000000000400f30 <fprintf@plt>:
  400f30:	ff 25 da 41 22 00    	jmpq   *0x2241da(%rip)        # 625110 <fprintf@GLIBC_2.2.5>
  400f36:	68 1f 00 00 00       	pushq  $0x1f
  400f3b:	e9 f0 fd ff ff       	jmpq   400d30 <.plt>

0000000000400f40 <write@plt>:
  400f40:	ff 25 d2 41 22 00    	jmpq   *0x2241d2(%rip)        # 625118 <write@GLIBC_2.2.5>
  400f46:	68 20 00 00 00       	pushq  $0x20
  400f4b:	e9 e0 fd ff ff       	jmpq   400d30 <.plt>

0000000000400f50 <strtoul@plt>:
  400f50:	ff 25 ca 41 22 00    	jmpq   *0x2241ca(%rip)        # 625120 <strtoul@GLIBC_2.2.5>
  400f56:	68 21 00 00 00       	pushq  $0x21
  400f5b:	e9 d0 fd ff ff       	jmpq   400d30 <.plt>

0000000000400f60 <memcpy@plt>:
  400f60:	ff 25 c2 41 22 00    	jmpq   *0x2241c2(%rip)        # 625128 <memcpy@GLIBC_2.14>
  400f66:	68 22 00 00 00       	pushq  $0x22
  400f6b:	e9 c0 fd ff ff       	jmpq   400d30 <.plt>

0000000000400f70 <mmap@plt>:
  400f70:	ff 25 ba 41 22 00    	jmpq   *0x2241ba(%rip)        # 625130 <mmap@GLIBC_2.2.5>
  400f76:	68 23 00 00 00       	pushq  $0x23
  400f7b:	e9 b0 fd ff ff       	jmpq   400d30 <.plt>

0000000000400f80 <time@plt>:
  400f80:	ff 25 b2 41 22 00    	jmpq   *0x2241b2(%rip)        # 625138 <time@GLIBC_2.2.5>
  400f86:	68 24 00 00 00       	pushq  $0x24
  400f8b:	e9 a0 fd ff ff       	jmpq   400d30 <.plt>

Disassembly of section .plt.got:

0000000000400f90 <.plt.got>:
  400f90:	ff 25 62 40 22 00    	jmpq   *0x224062(%rip)        # 624ff8 <__gmon_start__>
  400f96:	66 90                	xchg   %ax,%ax

Disassembly of section .fini:

0000000000423244 <_fini>:
  423244:	48 83 ec 08          	sub    $0x8,%rsp
  423248:	48 83 c4 08          	add    $0x8,%rsp
  42324c:	c3                   	retq   
