
rtarget:     file format elf64-x86-64


Disassembly of section .text:

0000000000421300 <_start>:
  421300:	31 ed                	xor    %ebp,%ebp
  421302:	49 89 d1             	mov    %rdx,%r9
  421305:	5e                   	pop    %rsi
  421306:	48 89 e2             	mov    %rsp,%rdx
  421309:	48 83 e4 f0          	and    $0xfffffffffffffff0,%rsp
  42130d:	50                   	push   %rax
  42130e:	54                   	push   %rsp
  42130f:	49 c7 c0 70 33 42 00 	mov    $0x423370,%r8
  421316:	48 c7 c1 00 33 42 00 	mov    $0x423300,%rcx
  42131d:	48 c7 c7 c0 15 42 00 	mov    $0x4215c0,%rdi
  421324:	e8 e7 fa fd ff       	callq  400e10 <__libc_start_main@plt>
  421329:	f4                   	hlt    
  42132a:	66 0f 1f 44 00 00    	nopw   0x0(%rax,%rax,1)

0000000000421330 <deregister_tm_clones>:
  421330:	b8 b7 54 62 00       	mov    $0x6254b7,%eax
  421335:	55                   	push   %rbp
  421336:	48 2d b0 54 62 00    	sub    $0x6254b0,%rax
  42133c:	48 83 f8 0e          	cmp    $0xe,%rax
  421340:	48 89 e5             	mov    %rsp,%rbp
  421343:	77 02                	ja     421347 <deregister_tm_clones+0x17>
  421345:	5d                   	pop    %rbp
  421346:	c3                   	retq   
  421347:	b8 00 00 00 00       	mov    $0x0,%eax
  42134c:	48 85 c0             	test   %rax,%rax
  42134f:	74 f4                	je     421345 <deregister_tm_clones+0x15>
  421351:	5d                   	pop    %rbp
  421352:	bf b0 54 62 00       	mov    $0x6254b0,%edi
  421357:	ff e0                	jmpq   *%rax
  421359:	0f 1f 80 00 00 00 00 	nopl   0x0(%rax)

0000000000421360 <register_tm_clones>:
  421360:	b8 b0 54 62 00       	mov    $0x6254b0,%eax
  421365:	55                   	push   %rbp
  421366:	48 2d b0 54 62 00    	sub    $0x6254b0,%rax
  42136c:	48 c1 f8 03          	sar    $0x3,%rax
  421370:	48 89 e5             	mov    %rsp,%rbp
  421373:	48 89 c2             	mov    %rax,%rdx
  421376:	48 c1 ea 3f          	shr    $0x3f,%rdx
  42137a:	48 01 d0             	add    %rdx,%rax
  42137d:	48 d1 f8             	sar    %rax
  421380:	75 02                	jne    421384 <register_tm_clones+0x24>
  421382:	5d                   	pop    %rbp
  421383:	c3                   	retq   
  421384:	ba 00 00 00 00       	mov    $0x0,%edx
  421389:	48 85 d2             	test   %rdx,%rdx
  42138c:	74 f4                	je     421382 <register_tm_clones+0x22>
  42138e:	5d                   	pop    %rbp
  42138f:	48 89 c6             	mov    %rax,%rsi
  421392:	bf b0 54 62 00       	mov    $0x6254b0,%edi
  421397:	ff e2                	jmpq   *%rdx
  421399:	0f 1f 80 00 00 00 00 	nopl   0x0(%rax)

00000000004213a0 <__do_global_dtors_aux>:
  4213a0:	80 3d 31 41 20 00 00 	cmpb   $0x0,0x204131(%rip)        # 6254d8 <completed.6355>
  4213a7:	75 11                	jne    4213ba <__do_global_dtors_aux+0x1a>
  4213a9:	55                   	push   %rbp
  4213aa:	48 89 e5             	mov    %rsp,%rbp
  4213ad:	e8 7e ff ff ff       	callq  421330 <deregister_tm_clones>
  4213b2:	5d                   	pop    %rbp
  4213b3:	c6 05 1e 41 20 00 01 	movb   $0x1,0x20411e(%rip)        # 6254d8 <completed.6355>
  4213ba:	f3 c3                	repz retq 
  4213bc:	0f 1f 40 00          	nopl   0x0(%rax)

00000000004213c0 <frame_dummy>:
  4213c0:	48 83 3d 48 3a 20 00 	cmpq   $0x0,0x203a48(%rip)        # 624e10 <__JCR_END__>
  4213c7:	00 
  4213c8:	74 1e                	je     4213e8 <frame_dummy+0x28>
  4213ca:	b8 00 00 00 00       	mov    $0x0,%eax
  4213cf:	48 85 c0             	test   %rax,%rax
  4213d2:	74 14                	je     4213e8 <frame_dummy+0x28>
  4213d4:	55                   	push   %rbp
  4213d5:	bf 10 4e 62 00       	mov    $0x624e10,%edi
  4213da:	48 89 e5             	mov    %rsp,%rbp
  4213dd:	ff d0                	callq  *%rax
  4213df:	5d                   	pop    %rbp
  4213e0:	e9 7b ff ff ff       	jmpq   421360 <register_tm_clones>
  4213e5:	0f 1f 00             	nopl   (%rax)
  4213e8:	e9 73 ff ff ff       	jmpq   421360 <register_tm_clones>
  4213ed:	0f 1f 00             	nopl   (%rax)

00000000004213f0 <usage>:
  4213f0:	48 83 ec 08          	sub    $0x8,%rsp
  4213f4:	48 89 fe             	mov    %rdi,%rsi
  4213f7:	83 3d 0a 41 20 00 00 	cmpl   $0x0,0x20410a(%rip)        # 625508 <is_checker>
  4213fe:	74 39                	je     421439 <usage+0x49>
  421400:	bf 90 33 42 00       	mov    $0x423390,%edi
  421405:	b8 00 00 00 00       	mov    $0x0,%eax
  42140a:	e8 41 f9 fd ff       	callq  400d50 <printf@plt>
  42140f:	bf c8 33 42 00       	mov    $0x4233c8,%edi
  421414:	e8 77 f9 fd ff       	callq  400d90 <puts@plt>
  421419:	bf 40 35 42 00       	mov    $0x423540,%edi
  42141e:	e8 6d f9 fd ff       	callq  400d90 <puts@plt>
  421423:	bf f0 33 42 00       	mov    $0x4233f0,%edi
  421428:	e8 63 f9 fd ff       	callq  400d90 <puts@plt>
  42142d:	bf 5a 35 42 00       	mov    $0x42355a,%edi
  421432:	e8 59 f9 fd ff       	callq  400d90 <puts@plt>
  421437:	eb 2d                	jmp    421466 <usage+0x76>
  421439:	bf 76 35 42 00       	mov    $0x423576,%edi
  42143e:	b8 00 00 00 00       	mov    $0x0,%eax
  421443:	e8 08 f9 fd ff       	callq  400d50 <printf@plt>
  421448:	bf 18 34 42 00       	mov    $0x423418,%edi
  42144d:	e8 3e f9 fd ff       	callq  400d90 <puts@plt>
  421452:	bf 40 34 42 00       	mov    $0x423440,%edi
  421457:	e8 34 f9 fd ff       	callq  400d90 <puts@plt>
  42145c:	bf 94 35 42 00       	mov    $0x423594,%edi
  421461:	e8 2a f9 fd ff       	callq  400d90 <puts@plt>
  421466:	bf 00 00 00 00       	mov    $0x0,%edi
  42146b:	e8 40 f9 fd ff       	callq  400db0 <exit@plt>

0000000000421470 <initialize_target>:
  421470:	55                   	push   %rbp
  421471:	53                   	push   %rbx
  421472:	48 81 ec 08 21 00 00 	sub    $0x2108,%rsp
  421479:	89 f5                	mov    %esi,%ebp
  42147b:	89 3d 77 40 20 00    	mov    %edi,0x204077(%rip)        # 6254f8 <check_level>
  421481:	8b 3d e1 3c 20 00    	mov    0x203ce1(%rip),%edi        # 625168 <target_id>
  421487:	e8 f2 1b 00 00       	callq  42307e <gencookie>
  42148c:	89 05 72 40 20 00    	mov    %eax,0x204072(%rip)        # 625504 <cookie>
  421492:	89 c7                	mov    %eax,%edi
  421494:	e8 e5 1b 00 00       	callq  42307e <gencookie>
  421499:	89 05 61 40 20 00    	mov    %eax,0x204061(%rip)        # 625500 <authkey>
  42149f:	8b 05 c3 3c 20 00    	mov    0x203cc3(%rip),%eax        # 625168 <target_id>
  4214a5:	8d 78 01             	lea    0x1(%rax),%edi
  4214a8:	e8 73 f9 fd ff       	callq  400e20 <srandom@plt>
  4214ad:	e8 6e fa fd ff       	callq  400f20 <random@plt>
  4214b2:	89 c7                	mov    %eax,%edi
  4214b4:	e8 ca 02 00 00       	callq  421783 <scramble>
  4214b9:	89 c3                	mov    %eax,%ebx
  4214bb:	bf 00 00 00 00       	mov    $0x0,%edi
  4214c0:	e8 bb fa fd ff       	callq  400f80 <time@plt>
  4214c5:	89 c7                	mov    %eax,%edi
  4214c7:	e8 54 f9 fd ff       	callq  400e20 <srandom@plt>
  4214cc:	85 ed                	test   %ebp,%ebp
  4214ce:	74 07                	je     4214d7 <initialize_target+0x67>
  4214d0:	e8 4b fa fd ff       	callq  400f20 <random@plt>
  4214d5:	eb 05                	jmp    4214dc <initialize_target+0x6c>
  4214d7:	b8 00 00 00 00       	mov    $0x0,%eax
  4214dc:	01 c3                	add    %eax,%ebx
  4214de:	0f b7 db             	movzwl %bx,%ebx
  4214e1:	8d 04 dd 00 01 00 00 	lea    0x100(,%rbx,8),%eax
  4214e8:	89 c0                	mov    %eax,%eax
  4214ea:	48 89 05 af 3f 20 00 	mov    %rax,0x203faf(%rip)        # 6254a0 <buf_offset>
  4214f1:	c6 05 30 4c 20 00 72 	movb   $0x72,0x204c30(%rip)        # 626128 <target_prefix>
  4214f8:	83 3d a9 3f 20 00 00 	cmpl   $0x0,0x203fa9(%rip)        # 6254a8 <notify>
  4214ff:	0f 84 b1 00 00 00    	je     4215b6 <initialize_target+0x146>
  421505:	83 3d fc 3f 20 00 00 	cmpl   $0x0,0x203ffc(%rip)        # 625508 <is_checker>
  42150c:	0f 85 a4 00 00 00    	jne    4215b6 <initialize_target+0x146>
  421512:	be 00 01 00 00       	mov    $0x100,%esi
  421517:	48 89 e7             	mov    %rsp,%rdi
  42151a:	e8 81 f9 fd ff       	callq  400ea0 <gethostname@plt>
  42151f:	85 c0                	test   %eax,%eax
  421521:	74 25                	je     421548 <initialize_target+0xd8>
  421523:	bf 70 34 42 00       	mov    $0x423470,%edi
  421528:	e8 63 f8 fd ff       	callq  400d90 <puts@plt>
  42152d:	bf 08 00 00 00       	mov    $0x8,%edi
  421532:	e8 79 f8 fd ff       	callq  400db0 <exit@plt>
  421537:	48 89 e6             	mov    %rsp,%rsi
  42153a:	e8 81 f8 fd ff       	callq  400dc0 <strcasecmp@plt>
  42153f:	85 c0                	test   %eax,%eax
  421541:	74 21                	je     421564 <initialize_target+0xf4>
  421543:	83 c3 01             	add    $0x1,%ebx
  421546:	eb 05                	jmp    42154d <initialize_target+0xdd>
  421548:	bb 00 00 00 00       	mov    $0x0,%ebx
  42154d:	48 63 c3             	movslq %ebx,%rax
  421550:	48 8b 3c c5 80 51 62 	mov    0x625180(,%rax,8),%rdi
  421557:	00 
  421558:	48 85 ff             	test   %rdi,%rdi
  42155b:	75 da                	jne    421537 <initialize_target+0xc7>
  42155d:	b8 00 00 00 00       	mov    $0x0,%eax
  421562:	eb 05                	jmp    421569 <initialize_target+0xf9>
  421564:	b8 01 00 00 00       	mov    $0x1,%eax
  421569:	85 c0                	test   %eax,%eax
  42156b:	75 17                	jne    421584 <initialize_target+0x114>
  42156d:	48 89 e6             	mov    %rsp,%rsi
  421570:	bf a8 34 42 00       	mov    $0x4234a8,%edi
  421575:	e8 d6 f7 fd ff       	callq  400d50 <printf@plt>
  42157a:	bf 08 00 00 00       	mov    $0x8,%edi
  42157f:	e8 2c f8 fd ff       	callq  400db0 <exit@plt>
  421584:	48 8d bc 24 00 01 00 	lea    0x100(%rsp),%rdi
  42158b:	00 
  42158c:	e8 84 18 00 00       	callq  422e15 <init_driver>
  421591:	85 c0                	test   %eax,%eax
  421593:	79 21                	jns    4215b6 <initialize_target+0x146>
  421595:	48 8d b4 24 00 01 00 	lea    0x100(%rsp),%rsi
  42159c:	00 
  42159d:	bf e8 34 42 00       	mov    $0x4234e8,%edi
  4215a2:	b8 00 00 00 00       	mov    $0x0,%eax
  4215a7:	e8 a4 f7 fd ff       	callq  400d50 <printf@plt>
  4215ac:	bf 08 00 00 00       	mov    $0x8,%edi
  4215b1:	e8 fa f7 fd ff       	callq  400db0 <exit@plt>
  4215b6:	48 81 c4 08 21 00 00 	add    $0x2108,%rsp
  4215bd:	5b                   	pop    %rbx
  4215be:	5d                   	pop    %rbp
  4215bf:	c3                   	retq   

00000000004215c0 <main>:
  4215c0:	41 56                	push   %r14
  4215c2:	41 55                	push   %r13
  4215c4:	41 54                	push   %r12
  4215c6:	55                   	push   %rbp
  4215c7:	53                   	push   %rbx
  4215c8:	41 89 fc             	mov    %edi,%r12d
  4215cb:	48 89 f3             	mov    %rsi,%rbx
  4215ce:	be 21 22 42 00       	mov    $0x422221,%esi
  4215d3:	bf 0b 00 00 00       	mov    $0xb,%edi
  4215d8:	e8 d3 f8 fd ff       	callq  400eb0 <signal@plt>
  4215dd:	be d3 21 42 00       	mov    $0x4221d3,%esi
  4215e2:	bf 07 00 00 00       	mov    $0x7,%edi
  4215e7:	e8 c4 f8 fd ff       	callq  400eb0 <signal@plt>
  4215ec:	be 6f 22 42 00       	mov    $0x42226f,%esi
  4215f1:	bf 04 00 00 00       	mov    $0x4,%edi
  4215f6:	e8 b5 f8 fd ff       	callq  400eb0 <signal@plt>
  4215fb:	83 3d 06 3f 20 00 00 	cmpl   $0x0,0x203f06(%rip)        # 625508 <is_checker>
  421602:	74 20                	je     421624 <main+0x64>
  421604:	be bd 22 42 00       	mov    $0x4222bd,%esi
  421609:	bf 0e 00 00 00       	mov    $0xe,%edi
  42160e:	e8 9d f8 fd ff       	callq  400eb0 <signal@plt>
  421613:	bf 05 00 00 00       	mov    $0x5,%edi
  421618:	e8 b3 f8 fd ff       	callq  400ed0 <alarm@plt>
  42161d:	bd b2 35 42 00       	mov    $0x4235b2,%ebp
  421622:	eb 05                	jmp    421629 <main+0x69>
  421624:	bd ad 35 42 00       	mov    $0x4235ad,%ebp
  421629:	48 8b 05 90 3e 20 00 	mov    0x203e90(%rip),%rax        # 6254c0 <stdin@@GLIBC_2.2.5>
  421630:	48 89 05 b9 3e 20 00 	mov    %rax,0x203eb9(%rip)        # 6254f0 <infile>
  421637:	41 bd 00 00 00 00    	mov    $0x0,%r13d
  42163d:	41 be 00 00 00 00    	mov    $0x0,%r14d
  421643:	e9 b9 00 00 00       	jmpq   421701 <main+0x141>
  421648:	83 e8 61             	sub    $0x61,%eax
  42164b:	3c 10                	cmp    $0x10,%al
  42164d:	0f 87 93 00 00 00    	ja     4216e6 <main+0x126>
  421653:	0f b6 c0             	movzbl %al,%eax
  421656:	ff 24 c5 f8 35 42 00 	jmpq   *0x4235f8(,%rax,8)
  42165d:	48 8b 3b             	mov    (%rbx),%rdi
  421660:	e8 8b fd ff ff       	callq  4213f0 <usage>
  421665:	be cd 39 42 00       	mov    $0x4239cd,%esi
  42166a:	48 8b 3d 57 3e 20 00 	mov    0x203e57(%rip),%rdi        # 6254c8 <optarg@@GLIBC_2.2.5>
  421671:	e8 8a f7 fd ff       	callq  400e00 <fopen@plt>
  421676:	48 89 05 73 3e 20 00 	mov    %rax,0x203e73(%rip)        # 6254f0 <infile>
  42167d:	48 85 c0             	test   %rax,%rax
  421680:	75 7f                	jne    421701 <main+0x141>
  421682:	48 8b 15 3f 3e 20 00 	mov    0x203e3f(%rip),%rdx        # 6254c8 <optarg@@GLIBC_2.2.5>
  421689:	be ba 35 42 00       	mov    $0x4235ba,%esi
  42168e:	48 8b 3d 3b 3e 20 00 	mov    0x203e3b(%rip),%rdi        # 6254d0 <stderr@@GLIBC_2.2.5>
  421695:	e8 96 f8 fd ff       	callq  400f30 <fprintf@plt>
  42169a:	b8 01 00 00 00       	mov    $0x1,%eax
  42169f:	e9 d6 00 00 00       	jmpq   42177a <main+0x1ba>
  4216a4:	ba 10 00 00 00       	mov    $0x10,%edx
  4216a9:	be 00 00 00 00       	mov    $0x0,%esi
  4216ae:	48 8b 3d 13 3e 20 00 	mov    0x203e13(%rip),%rdi        # 6254c8 <optarg@@GLIBC_2.2.5>
  4216b5:	e8 96 f8 fd ff       	callq  400f50 <strtoul@plt>
  4216ba:	41 89 c6             	mov    %eax,%r14d
  4216bd:	eb 42                	jmp    421701 <main+0x141>
  4216bf:	ba 0a 00 00 00       	mov    $0xa,%edx
  4216c4:	be 00 00 00 00       	mov    $0x0,%esi
  4216c9:	48 8b 3d f8 3d 20 00 	mov    0x203df8(%rip),%rdi        # 6254c8 <optarg@@GLIBC_2.2.5>
  4216d0:	e8 ab f7 fd ff       	callq  400e80 <strtol@plt>
  4216d5:	41 89 c5             	mov    %eax,%r13d
  4216d8:	eb 27                	jmp    421701 <main+0x141>
  4216da:	c7 05 c4 3d 20 00 00 	movl   $0x0,0x203dc4(%rip)        # 6254a8 <notify>
  4216e1:	00 00 00 
  4216e4:	eb 1b                	jmp    421701 <main+0x141>
  4216e6:	40 0f be f6          	movsbl %sil,%esi
  4216ea:	bf d7 35 42 00       	mov    $0x4235d7,%edi
  4216ef:	b8 00 00 00 00       	mov    $0x0,%eax
  4216f4:	e8 57 f6 fd ff       	callq  400d50 <printf@plt>
  4216f9:	48 8b 3b             	mov    (%rbx),%rdi
  4216fc:	e8 ef fc ff ff       	callq  4213f0 <usage>
  421701:	48 89 ea             	mov    %rbp,%rdx
  421704:	48 89 de             	mov    %rbx,%rsi
  421707:	44 89 e7             	mov    %r12d,%edi
  42170a:	e8 c1 f6 fd ff       	callq  400dd0 <getopt@plt>
  42170f:	89 c6                	mov    %eax,%esi
  421711:	3c ff                	cmp    $0xff,%al
  421713:	0f 85 2f ff ff ff    	jne    421648 <main+0x88>
  421719:	be 01 00 00 00       	mov    $0x1,%esi
  42171e:	44 89 ef             	mov    %r13d,%edi
  421721:	e8 4a fd ff ff       	callq  421470 <initialize_target>
  421726:	83 3d db 3d 20 00 00 	cmpl   $0x0,0x203ddb(%rip)        # 625508 <is_checker>
  42172d:	74 25                	je     421754 <main+0x194>
  42172f:	44 3b 35 ca 3d 20 00 	cmp    0x203dca(%rip),%r14d        # 625500 <authkey>
  421736:	74 1c                	je     421754 <main+0x194>
  421738:	44 89 f6             	mov    %r14d,%esi
  42173b:	bf 10 35 42 00       	mov    $0x423510,%edi
  421740:	b8 00 00 00 00       	mov    $0x0,%eax
  421745:	e8 06 f6 fd ff       	callq  400d50 <printf@plt>
  42174a:	b8 00 00 00 00       	mov    $0x0,%eax
  42174f:	e8 87 07 00 00       	callq  421edb <check_fail>
  421754:	8b 35 aa 3d 20 00    	mov    0x203daa(%rip),%esi        # 625504 <cookie>
  42175a:	bf ea 35 42 00       	mov    $0x4235ea,%edi
  42175f:	b8 00 00 00 00       	mov    $0x0,%eax
  421764:	e8 e7 f5 fd ff       	callq  400d50 <printf@plt>
  421769:	48 8b 3d 30 3d 20 00 	mov    0x203d30(%rip),%rdi        # 6254a0 <buf_offset>
  421770:	e8 96 0b 00 00       	callq  42230b <launch>
  421775:	b8 00 00 00 00       	mov    $0x0,%eax
  42177a:	5b                   	pop    %rbx
  42177b:	5d                   	pop    %rbp
  42177c:	41 5c                	pop    %r12
  42177e:	41 5d                	pop    %r13
  421780:	41 5e                	pop    %r14
  421782:	c3                   	retq   

0000000000421783 <scramble>:
  421783:	b8 00 00 00 00       	mov    $0x0,%eax
  421788:	eb 11                	jmp    42179b <scramble+0x18>
  42178a:	69 c8 32 66 00 00    	imul   $0x6632,%eax,%ecx
  421790:	01 f9                	add    %edi,%ecx
  421792:	89 c2                	mov    %eax,%edx
  421794:	89 4c 94 d0          	mov    %ecx,-0x30(%rsp,%rdx,4)
  421798:	83 c0 01             	add    $0x1,%eax
  42179b:	83 f8 09             	cmp    $0x9,%eax
  42179e:	76 ea                	jbe    42178a <scramble+0x7>
  4217a0:	8b 44 24 f0          	mov    -0x10(%rsp),%eax
  4217a4:	69 c0 94 74 00 00    	imul   $0x7494,%eax,%eax
  4217aa:	89 44 24 f0          	mov    %eax,-0x10(%rsp)
  4217ae:	8b 44 24 f4          	mov    -0xc(%rsp),%eax
  4217b2:	69 c0 d0 20 00 00    	imul   $0x20d0,%eax,%eax
  4217b8:	89 44 24 f4          	mov    %eax,-0xc(%rsp)
  4217bc:	8b 44 24 d4          	mov    -0x2c(%rsp),%eax
  4217c0:	69 c0 8c 78 00 00    	imul   $0x788c,%eax,%eax
  4217c6:	89 44 24 d4          	mov    %eax,-0x2c(%rsp)
  4217ca:	8b 44 24 f0          	mov    -0x10(%rsp),%eax
  4217ce:	69 c0 39 d1 00 00    	imul   $0xd139,%eax,%eax
  4217d4:	89 44 24 f0          	mov    %eax,-0x10(%rsp)
  4217d8:	8b 44 24 d0          	mov    -0x30(%rsp),%eax
  4217dc:	69 c0 ce 45 00 00    	imul   $0x45ce,%eax,%eax
  4217e2:	89 44 24 d0          	mov    %eax,-0x30(%rsp)
  4217e6:	8b 44 24 f4          	mov    -0xc(%rsp),%eax
  4217ea:	69 c0 14 ee 00 00    	imul   $0xee14,%eax,%eax
  4217f0:	89 44 24 f4          	mov    %eax,-0xc(%rsp)
  4217f4:	8b 44 24 d0          	mov    -0x30(%rsp),%eax
  4217f8:	69 c0 8f 90 00 00    	imul   $0x908f,%eax,%eax
  4217fe:	89 44 24 d0          	mov    %eax,-0x30(%rsp)
  421802:	8b 44 24 e4          	mov    -0x1c(%rsp),%eax
  421806:	69 c0 96 f1 00 00    	imul   $0xf196,%eax,%eax
  42180c:	89 44 24 e4          	mov    %eax,-0x1c(%rsp)
  421810:	8b 44 24 e8          	mov    -0x18(%rsp),%eax
  421814:	69 c0 0d 3f 00 00    	imul   $0x3f0d,%eax,%eax
  42181a:	89 44 24 e8          	mov    %eax,-0x18(%rsp)
  42181e:	8b 44 24 d0          	mov    -0x30(%rsp),%eax
  421822:	69 c0 b6 8b 00 00    	imul   $0x8bb6,%eax,%eax
  421828:	89 44 24 d0          	mov    %eax,-0x30(%rsp)
  42182c:	8b 44 24 f4          	mov    -0xc(%rsp),%eax
  421830:	69 c0 78 86 00 00    	imul   $0x8678,%eax,%eax
  421836:	89 44 24 f4          	mov    %eax,-0xc(%rsp)
  42183a:	8b 44 24 d0          	mov    -0x30(%rsp),%eax
  42183e:	69 c0 ea 2f 00 00    	imul   $0x2fea,%eax,%eax
  421844:	89 44 24 d0          	mov    %eax,-0x30(%rsp)
  421848:	8b 44 24 d8          	mov    -0x28(%rsp),%eax
  42184c:	69 c0 d6 0b 00 00    	imul   $0xbd6,%eax,%eax
  421852:	89 44 24 d8          	mov    %eax,-0x28(%rsp)
  421856:	8b 44 24 e4          	mov    -0x1c(%rsp),%eax
  42185a:	69 c0 06 a6 00 00    	imul   $0xa606,%eax,%eax
  421860:	89 44 24 e4          	mov    %eax,-0x1c(%rsp)
  421864:	8b 44 24 e4          	mov    -0x1c(%rsp),%eax
  421868:	69 c0 c0 3c 00 00    	imul   $0x3cc0,%eax,%eax
  42186e:	89 44 24 e4          	mov    %eax,-0x1c(%rsp)
  421872:	8b 44 24 f0          	mov    -0x10(%rsp),%eax
  421876:	69 c0 9f 54 00 00    	imul   $0x549f,%eax,%eax
  42187c:	89 44 24 f0          	mov    %eax,-0x10(%rsp)
  421880:	8b 44 24 e4          	mov    -0x1c(%rsp),%eax
  421884:	69 c0 41 47 00 00    	imul   $0x4741,%eax,%eax
  42188a:	89 44 24 e4          	mov    %eax,-0x1c(%rsp)
  42188e:	8b 44 24 d4          	mov    -0x2c(%rsp),%eax
  421892:	69 c0 97 f7 00 00    	imul   $0xf797,%eax,%eax
  421898:	89 44 24 d4          	mov    %eax,-0x2c(%rsp)
  42189c:	8b 44 24 e0          	mov    -0x20(%rsp),%eax
  4218a0:	69 c0 7c 46 00 00    	imul   $0x467c,%eax,%eax
  4218a6:	89 44 24 e0          	mov    %eax,-0x20(%rsp)
  4218aa:	8b 44 24 e4          	mov    -0x1c(%rsp),%eax
  4218ae:	69 c0 0b 7a 00 00    	imul   $0x7a0b,%eax,%eax
  4218b4:	89 44 24 e4          	mov    %eax,-0x1c(%rsp)
  4218b8:	8b 44 24 d8          	mov    -0x28(%rsp),%eax
  4218bc:	69 c0 f2 f6 00 00    	imul   $0xf6f2,%eax,%eax
  4218c2:	89 44 24 d8          	mov    %eax,-0x28(%rsp)
  4218c6:	8b 44 24 d8          	mov    -0x28(%rsp),%eax
  4218ca:	69 c0 0a ab 00 00    	imul   $0xab0a,%eax,%eax
  4218d0:	89 44 24 d8          	mov    %eax,-0x28(%rsp)
  4218d4:	8b 44 24 d0          	mov    -0x30(%rsp),%eax
  4218d8:	69 c0 da 5a 00 00    	imul   $0x5ada,%eax,%eax
  4218de:	89 44 24 d0          	mov    %eax,-0x30(%rsp)
  4218e2:	8b 44 24 d4          	mov    -0x2c(%rsp),%eax
  4218e6:	69 c0 09 d3 00 00    	imul   $0xd309,%eax,%eax
  4218ec:	89 44 24 d4          	mov    %eax,-0x2c(%rsp)
  4218f0:	8b 44 24 ec          	mov    -0x14(%rsp),%eax
  4218f4:	69 c0 a6 a6 00 00    	imul   $0xa6a6,%eax,%eax
  4218fa:	89 44 24 ec          	mov    %eax,-0x14(%rsp)
  4218fe:	8b 44 24 ec          	mov    -0x14(%rsp),%eax
  421902:	69 c0 e7 89 00 00    	imul   $0x89e7,%eax,%eax
  421908:	89 44 24 ec          	mov    %eax,-0x14(%rsp)
  42190c:	8b 44 24 d0          	mov    -0x30(%rsp),%eax
  421910:	69 c0 f4 1c 00 00    	imul   $0x1cf4,%eax,%eax
  421916:	89 44 24 d0          	mov    %eax,-0x30(%rsp)
  42191a:	8b 44 24 e8          	mov    -0x18(%rsp),%eax
  42191e:	69 c0 23 d3 00 00    	imul   $0xd323,%eax,%eax
  421924:	89 44 24 e8          	mov    %eax,-0x18(%rsp)
  421928:	8b 44 24 f4          	mov    -0xc(%rsp),%eax
  42192c:	69 c0 d4 e4 00 00    	imul   $0xe4d4,%eax,%eax
  421932:	89 44 24 f4          	mov    %eax,-0xc(%rsp)
  421936:	8b 44 24 e8          	mov    -0x18(%rsp),%eax
  42193a:	69 c0 37 17 00 00    	imul   $0x1737,%eax,%eax
  421940:	89 44 24 e8          	mov    %eax,-0x18(%rsp)
  421944:	8b 44 24 d8          	mov    -0x28(%rsp),%eax
  421948:	69 c0 80 af 00 00    	imul   $0xaf80,%eax,%eax
  42194e:	89 44 24 d8          	mov    %eax,-0x28(%rsp)
  421952:	8b 44 24 ec          	mov    -0x14(%rsp),%eax
  421956:	69 c0 e8 d2 00 00    	imul   $0xd2e8,%eax,%eax
  42195c:	89 44 24 ec          	mov    %eax,-0x14(%rsp)
  421960:	8b 44 24 e4          	mov    -0x1c(%rsp),%eax
  421964:	69 c0 45 e1 00 00    	imul   $0xe145,%eax,%eax
  42196a:	89 44 24 e4          	mov    %eax,-0x1c(%rsp)
  42196e:	8b 44 24 f0          	mov    -0x10(%rsp),%eax
  421972:	69 c0 8e b6 00 00    	imul   $0xb68e,%eax,%eax
  421978:	89 44 24 f0          	mov    %eax,-0x10(%rsp)
  42197c:	8b 44 24 d8          	mov    -0x28(%rsp),%eax
  421980:	69 c0 50 93 00 00    	imul   $0x9350,%eax,%eax
  421986:	89 44 24 d8          	mov    %eax,-0x28(%rsp)
  42198a:	8b 44 24 e8          	mov    -0x18(%rsp),%eax
  42198e:	69 c0 0d b4 00 00    	imul   $0xb40d,%eax,%eax
  421994:	89 44 24 e8          	mov    %eax,-0x18(%rsp)
  421998:	8b 44 24 d4          	mov    -0x2c(%rsp),%eax
  42199c:	69 c0 ba 98 00 00    	imul   $0x98ba,%eax,%eax
  4219a2:	89 44 24 d4          	mov    %eax,-0x2c(%rsp)
  4219a6:	8b 44 24 d0          	mov    -0x30(%rsp),%eax
  4219aa:	69 c0 c4 11 00 00    	imul   $0x11c4,%eax,%eax
  4219b0:	89 44 24 d0          	mov    %eax,-0x30(%rsp)
  4219b4:	8b 44 24 ec          	mov    -0x14(%rsp),%eax
  4219b8:	69 c0 b7 fb 00 00    	imul   $0xfbb7,%eax,%eax
  4219be:	89 44 24 ec          	mov    %eax,-0x14(%rsp)
  4219c2:	8b 44 24 d4          	mov    -0x2c(%rsp),%eax
  4219c6:	69 c0 7b 8d 00 00    	imul   $0x8d7b,%eax,%eax
  4219cc:	89 44 24 d4          	mov    %eax,-0x2c(%rsp)
  4219d0:	8b 44 24 f0          	mov    -0x10(%rsp),%eax
  4219d4:	69 c0 8c 43 00 00    	imul   $0x438c,%eax,%eax
  4219da:	89 44 24 f0          	mov    %eax,-0x10(%rsp)
  4219de:	8b 44 24 e0          	mov    -0x20(%rsp),%eax
  4219e2:	69 c0 7c cf 00 00    	imul   $0xcf7c,%eax,%eax
  4219e8:	89 44 24 e0          	mov    %eax,-0x20(%rsp)
  4219ec:	8b 44 24 e4          	mov    -0x1c(%rsp),%eax
  4219f0:	69 c0 34 d1 00 00    	imul   $0xd134,%eax,%eax
  4219f6:	89 44 24 e4          	mov    %eax,-0x1c(%rsp)
  4219fa:	8b 44 24 e0          	mov    -0x20(%rsp),%eax
  4219fe:	69 c0 4a 89 00 00    	imul   $0x894a,%eax,%eax
  421a04:	89 44 24 e0          	mov    %eax,-0x20(%rsp)
  421a08:	8b 44 24 ec          	mov    -0x14(%rsp),%eax
  421a0c:	69 c0 c9 1b 00 00    	imul   $0x1bc9,%eax,%eax
  421a12:	89 44 24 ec          	mov    %eax,-0x14(%rsp)
  421a16:	8b 44 24 d4          	mov    -0x2c(%rsp),%eax
  421a1a:	69 c0 9c d7 00 00    	imul   $0xd79c,%eax,%eax
  421a20:	89 44 24 d4          	mov    %eax,-0x2c(%rsp)
  421a24:	8b 44 24 e8          	mov    -0x18(%rsp),%eax
  421a28:	69 c0 57 0c 00 00    	imul   $0xc57,%eax,%eax
  421a2e:	89 44 24 e8          	mov    %eax,-0x18(%rsp)
  421a32:	8b 44 24 f4          	mov    -0xc(%rsp),%eax
  421a36:	69 c0 0b c2 00 00    	imul   $0xc20b,%eax,%eax
  421a3c:	89 44 24 f4          	mov    %eax,-0xc(%rsp)
  421a40:	8b 44 24 dc          	mov    -0x24(%rsp),%eax
  421a44:	69 c0 04 75 00 00    	imul   $0x7504,%eax,%eax
  421a4a:	89 44 24 dc          	mov    %eax,-0x24(%rsp)
  421a4e:	8b 44 24 e0          	mov    -0x20(%rsp),%eax
  421a52:	69 c0 5f 15 00 00    	imul   $0x155f,%eax,%eax
  421a58:	89 44 24 e0          	mov    %eax,-0x20(%rsp)
  421a5c:	8b 44 24 d8          	mov    -0x28(%rsp),%eax
  421a60:	69 c0 33 a9 00 00    	imul   $0xa933,%eax,%eax
  421a66:	89 44 24 d8          	mov    %eax,-0x28(%rsp)
  421a6a:	8b 44 24 d4          	mov    -0x2c(%rsp),%eax
  421a6e:	69 c0 96 92 00 00    	imul   $0x9296,%eax,%eax
  421a74:	89 44 24 d4          	mov    %eax,-0x2c(%rsp)
  421a78:	8b 44 24 dc          	mov    -0x24(%rsp),%eax
  421a7c:	69 c0 83 28 00 00    	imul   $0x2883,%eax,%eax
  421a82:	89 44 24 dc          	mov    %eax,-0x24(%rsp)
  421a86:	8b 44 24 e8          	mov    -0x18(%rsp),%eax
  421a8a:	69 c0 81 35 00 00    	imul   $0x3581,%eax,%eax
  421a90:	89 44 24 e8          	mov    %eax,-0x18(%rsp)
  421a94:	8b 44 24 f0          	mov    -0x10(%rsp),%eax
  421a98:	69 c0 28 89 00 00    	imul   $0x8928,%eax,%eax
  421a9e:	89 44 24 f0          	mov    %eax,-0x10(%rsp)
  421aa2:	8b 44 24 f4          	mov    -0xc(%rsp),%eax
  421aa6:	69 c0 97 c6 00 00    	imul   $0xc697,%eax,%eax
  421aac:	89 44 24 f4          	mov    %eax,-0xc(%rsp)
  421ab0:	8b 44 24 e8          	mov    -0x18(%rsp),%eax
  421ab4:	69 c0 5f da 00 00    	imul   $0xda5f,%eax,%eax
  421aba:	89 44 24 e8          	mov    %eax,-0x18(%rsp)
  421abe:	8b 44 24 f4          	mov    -0xc(%rsp),%eax
  421ac2:	69 c0 35 2d 00 00    	imul   $0x2d35,%eax,%eax
  421ac8:	89 44 24 f4          	mov    %eax,-0xc(%rsp)
  421acc:	8b 44 24 d0          	mov    -0x30(%rsp),%eax
  421ad0:	69 c0 b3 38 00 00    	imul   $0x38b3,%eax,%eax
  421ad6:	89 44 24 d0          	mov    %eax,-0x30(%rsp)
  421ada:	8b 44 24 d0          	mov    -0x30(%rsp),%eax
  421ade:	69 c0 9c 61 00 00    	imul   $0x619c,%eax,%eax
  421ae4:	89 44 24 d0          	mov    %eax,-0x30(%rsp)
  421ae8:	8b 44 24 e8          	mov    -0x18(%rsp),%eax
  421aec:	69 c0 01 57 00 00    	imul   $0x5701,%eax,%eax
  421af2:	89 44 24 e8          	mov    %eax,-0x18(%rsp)
  421af6:	8b 44 24 f4          	mov    -0xc(%rsp),%eax
  421afa:	69 c0 c6 1f 00 00    	imul   $0x1fc6,%eax,%eax
  421b00:	89 44 24 f4          	mov    %eax,-0xc(%rsp)
  421b04:	8b 44 24 ec          	mov    -0x14(%rsp),%eax
  421b08:	69 c0 bd e3 00 00    	imul   $0xe3bd,%eax,%eax
  421b0e:	89 44 24 ec          	mov    %eax,-0x14(%rsp)
  421b12:	8b 44 24 f4          	mov    -0xc(%rsp),%eax
  421b16:	69 c0 f6 50 00 00    	imul   $0x50f6,%eax,%eax
  421b1c:	89 44 24 f4          	mov    %eax,-0xc(%rsp)
  421b20:	8b 44 24 f4          	mov    -0xc(%rsp),%eax
  421b24:	69 c0 6a 5a 00 00    	imul   $0x5a6a,%eax,%eax
  421b2a:	89 44 24 f4          	mov    %eax,-0xc(%rsp)
  421b2e:	8b 44 24 e8          	mov    -0x18(%rsp),%eax
  421b32:	69 c0 15 61 00 00    	imul   $0x6115,%eax,%eax
  421b38:	89 44 24 e8          	mov    %eax,-0x18(%rsp)
  421b3c:	8b 44 24 ec          	mov    -0x14(%rsp),%eax
  421b40:	69 c0 c1 2f 00 00    	imul   $0x2fc1,%eax,%eax
  421b46:	89 44 24 ec          	mov    %eax,-0x14(%rsp)
  421b4a:	8b 44 24 e8          	mov    -0x18(%rsp),%eax
  421b4e:	69 c0 8b 45 00 00    	imul   $0x458b,%eax,%eax
  421b54:	89 44 24 e8          	mov    %eax,-0x18(%rsp)
  421b58:	8b 44 24 dc          	mov    -0x24(%rsp),%eax
  421b5c:	69 c0 06 98 00 00    	imul   $0x9806,%eax,%eax
  421b62:	89 44 24 dc          	mov    %eax,-0x24(%rsp)
  421b66:	8b 44 24 dc          	mov    -0x24(%rsp),%eax
  421b6a:	69 c0 7e 7c 00 00    	imul   $0x7c7e,%eax,%eax
  421b70:	89 44 24 dc          	mov    %eax,-0x24(%rsp)
  421b74:	8b 44 24 d4          	mov    -0x2c(%rsp),%eax
  421b78:	69 c0 09 3e 00 00    	imul   $0x3e09,%eax,%eax
  421b7e:	89 44 24 d4          	mov    %eax,-0x2c(%rsp)
  421b82:	ba 00 00 00 00       	mov    $0x0,%edx
  421b87:	b8 00 00 00 00       	mov    $0x0,%eax
  421b8c:	eb 0b                	jmp    421b99 <scramble+0x416>
  421b8e:	89 d1                	mov    %edx,%ecx
  421b90:	8b 4c 8c d0          	mov    -0x30(%rsp,%rcx,4),%ecx
  421b94:	01 c8                	add    %ecx,%eax
  421b96:	83 c2 01             	add    $0x1,%edx
  421b99:	83 fa 09             	cmp    $0x9,%edx
  421b9c:	76 f0                	jbe    421b8e <scramble+0x40b>
  421b9e:	f3 c3                	repz retq 

0000000000421ba0 <getbuf>:
  421ba0:	48 83 ec 18          	sub    $0x18,%rsp
  421ba4:	48 89 e7             	mov    %rsp,%rdi
  421ba7:	e8 5e 03 00 00       	callq  421f0a <Gets>
  421bac:	b8 01 00 00 00       	mov    $0x1,%eax
  421bb1:	48 83 c4 18          	add    $0x18,%rsp
  421bb5:	c3                   	retq   

0000000000421bb6 <touch1>:
  421bb6:	48 83 ec 08          	sub    $0x8,%rsp
  421bba:	c7 05 38 39 20 00 01 	movl   $0x1,0x203938(%rip)        # 6254fc <vlevel>
  421bc1:	00 00 00 
  421bc4:	bf 1f 38 42 00       	mov    $0x42381f,%edi
  421bc9:	e8 c2 f1 fd ff       	callq  400d90 <puts@plt>
  421bce:	bf 01 00 00 00       	mov    $0x1,%edi
  421bd3:	e8 21 05 00 00       	callq  4220f9 <validate>
  421bd8:	bf 00 00 00 00       	mov    $0x0,%edi
  421bdd:	e8 ce f1 fd ff       	callq  400db0 <exit@plt>

0000000000421be2 <touch2>:
  421be2:	48 83 ec 08          	sub    $0x8,%rsp
  421be6:	89 fe                	mov    %edi,%esi
  421be8:	c7 05 0a 39 20 00 02 	movl   $0x2,0x20390a(%rip)        # 6254fc <vlevel>
  421bef:	00 00 00 
  421bf2:	3b 3d 0c 39 20 00    	cmp    0x20390c(%rip),%edi        # 625504 <cookie>
  421bf8:	75 1b                	jne    421c15 <touch2+0x33>
  421bfa:	bf 48 38 42 00       	mov    $0x423848,%edi
  421bff:	b8 00 00 00 00       	mov    $0x0,%eax
  421c04:	e8 47 f1 fd ff       	callq  400d50 <printf@plt>
  421c09:	bf 02 00 00 00       	mov    $0x2,%edi
  421c0e:	e8 e6 04 00 00       	callq  4220f9 <validate>
  421c13:	eb 19                	jmp    421c2e <touch2+0x4c>
  421c15:	bf 70 38 42 00       	mov    $0x423870,%edi
  421c1a:	b8 00 00 00 00       	mov    $0x0,%eax
  421c1f:	e8 2c f1 fd ff       	callq  400d50 <printf@plt>
  421c24:	bf 02 00 00 00       	mov    $0x2,%edi
  421c29:	e8 7d 05 00 00       	callq  4221ab <fail>
  421c2e:	bf 00 00 00 00       	mov    $0x0,%edi
  421c33:	e8 78 f1 fd ff       	callq  400db0 <exit@plt>

0000000000421c38 <hexmatch>:
  421c38:	41 54                	push   %r12
  421c3a:	55                   	push   %rbp
  421c3b:	53                   	push   %rbx
  421c3c:	48 83 ec 70          	sub    $0x70,%rsp
  421c40:	41 89 fc             	mov    %edi,%r12d
  421c43:	48 89 f5             	mov    %rsi,%rbp
  421c46:	e8 d5 f2 fd ff       	callq  400f20 <random@plt>
  421c4b:	48 89 c1             	mov    %rax,%rcx
  421c4e:	48 ba 0b d7 a3 70 3d 	movabs $0xa3d70a3d70a3d70b,%rdx
  421c55:	0a d7 a3 
  421c58:	48 f7 ea             	imul   %rdx
  421c5b:	48 8d 04 0a          	lea    (%rdx,%rcx,1),%rax
  421c5f:	48 c1 f8 06          	sar    $0x6,%rax
  421c63:	48 89 ce             	mov    %rcx,%rsi
  421c66:	48 c1 fe 3f          	sar    $0x3f,%rsi
  421c6a:	48 29 f0             	sub    %rsi,%rax
  421c6d:	48 8d 04 80          	lea    (%rax,%rax,4),%rax
  421c71:	48 8d 04 80          	lea    (%rax,%rax,4),%rax
  421c75:	48 c1 e0 02          	shl    $0x2,%rax
  421c79:	48 29 c1             	sub    %rax,%rcx
  421c7c:	48 8d 1c 0c          	lea    (%rsp,%rcx,1),%rbx
  421c80:	44 89 e2             	mov    %r12d,%edx
  421c83:	be 3c 38 42 00       	mov    $0x42383c,%esi
  421c88:	48 89 df             	mov    %rbx,%rdi
  421c8b:	b8 00 00 00 00       	mov    $0x0,%eax
  421c90:	e8 cb f1 fd ff       	callq  400e60 <sprintf@plt>
  421c95:	ba 09 00 00 00       	mov    $0x9,%edx
  421c9a:	48 89 de             	mov    %rbx,%rsi
  421c9d:	48 89 ef             	mov    %rbp,%rdi
  421ca0:	e8 4b f1 fd ff       	callq  400df0 <strncmp@plt>
  421ca5:	85 c0                	test   %eax,%eax
  421ca7:	0f 94 c0             	sete   %al
  421caa:	0f b6 c0             	movzbl %al,%eax
  421cad:	48 83 c4 70          	add    $0x70,%rsp
  421cb1:	5b                   	pop    %rbx
  421cb2:	5d                   	pop    %rbp
  421cb3:	41 5c                	pop    %r12
  421cb5:	c3                   	retq   

0000000000421cb6 <touch3>:
  421cb6:	53                   	push   %rbx
  421cb7:	48 89 fb             	mov    %rdi,%rbx
  421cba:	c7 05 38 38 20 00 03 	movl   $0x3,0x203838(%rip)        # 6254fc <vlevel>
  421cc1:	00 00 00 
  421cc4:	48 89 fe             	mov    %rdi,%rsi
  421cc7:	8b 3d 37 38 20 00    	mov    0x203837(%rip),%edi        # 625504 <cookie>
  421ccd:	e8 66 ff ff ff       	callq  421c38 <hexmatch>
  421cd2:	85 c0                	test   %eax,%eax
  421cd4:	74 1e                	je     421cf4 <touch3+0x3e>
  421cd6:	48 89 de             	mov    %rbx,%rsi
  421cd9:	bf 98 38 42 00       	mov    $0x423898,%edi
  421cde:	b8 00 00 00 00       	mov    $0x0,%eax
  421ce3:	e8 68 f0 fd ff       	callq  400d50 <printf@plt>
  421ce8:	bf 03 00 00 00       	mov    $0x3,%edi
  421ced:	e8 07 04 00 00       	callq  4220f9 <validate>
  421cf2:	eb 1c                	jmp    421d10 <touch3+0x5a>
  421cf4:	48 89 de             	mov    %rbx,%rsi
  421cf7:	bf c0 38 42 00       	mov    $0x4238c0,%edi
  421cfc:	b8 00 00 00 00       	mov    $0x0,%eax
  421d01:	e8 4a f0 fd ff       	callq  400d50 <printf@plt>
  421d06:	bf 03 00 00 00       	mov    $0x3,%edi
  421d0b:	e8 9b 04 00 00       	callq  4221ab <fail>
  421d10:	bf 00 00 00 00       	mov    $0x0,%edi
  421d15:	e8 96 f0 fd ff       	callq  400db0 <exit@plt>

0000000000421d1a <test>:
  421d1a:	48 83 ec 08          	sub    $0x8,%rsp
  421d1e:	b8 00 00 00 00       	mov    $0x0,%eax
  421d23:	e8 78 fe ff ff       	callq  421ba0 <getbuf>
  421d28:	89 c6                	mov    %eax,%esi
  421d2a:	bf e8 38 42 00       	mov    $0x4238e8,%edi
  421d2f:	b8 00 00 00 00       	mov    $0x0,%eax
  421d34:	e8 17 f0 fd ff       	callq  400d50 <printf@plt>
  421d39:	48 83 c4 08          	add    $0x8,%rsp
  421d3d:	c3                   	retq   

0000000000421d3e <start_farm>:
  421d3e:	b8 01 00 00 00       	mov    $0x1,%eax
  421d43:	c3                   	retq   

0000000000421d44 <getval_179>:
  421d44:	b8 48 89 c7 c3       	mov    $0xc3c78948,%eax
  421d49:	c3                   	retq   

0000000000421d4a <addval_310>:
  421d4a:	8d 87 48 89 c7 94    	lea    -0x6b3876b8(%rdi),%eax
  421d50:	c3                   	retq   

0000000000421d51 <setval_349>:
  421d51:	c7 07 48 89 c7 91    	movl   $0x91c78948,(%rdi)
  421d57:	c3                   	retq   

0000000000421d58 <getval_462>:
  421d58:	b8 18 90 90 c3       	mov    $0xc3909018,%eax
  421d5d:	c3                   	retq   

0000000000421d5e <addval_428>:
  421d5e:	8d 87 77 58 90 90    	lea    -0x6f6fa789(%rdi),%eax
  421d64:	c3                   	retq   

0000000000421d65 <getval_407>:
  421d65:	b8 18 90 c3 d9       	mov    $0xd9c39018,%eax
  421d6a:	c3                   	retq   

0000000000421d6b <getval_221>:
  421d6b:	b8 6a 58 c3 21       	mov    $0x21c3586a,%eax
  421d70:	c3                   	retq   

0000000000421d71 <getval_212>:
  421d71:	b8 48 89 c7 90       	mov    $0x90c78948,%eax
  421d76:	c3                   	retq   

0000000000421d77 <mid_farm>:
  421d77:	b8 01 00 00 00       	mov    $0x1,%eax
  421d7c:	c3                   	retq   

0000000000421d7d <add_xy>:
  421d7d:	48 8d 04 37          	lea    (%rdi,%rsi,1),%rax
  421d81:	c3                   	retq   

0000000000421d82 <setval_338>:
  421d82:	c7 07 a9 c1 20 db    	movl   $0xdb20c1a9,(%rdi)
  421d88:	c3                   	retq   

0000000000421d89 <addval_138>:
  421d89:	8d 87 89 d6 20 c9    	lea    -0x36df2977(%rdi),%eax
  421d8f:	c3                   	retq   

0000000000421d90 <addval_412>:
  421d90:	8d 87 89 d6 48 d2    	lea    -0x2db72977(%rdi),%eax
  421d96:	c3                   	retq   

0000000000421d97 <addval_300>:
  421d97:	8d 87 74 89 ca 90    	lea    -0x6f35768c(%rdi),%eax
  421d9d:	c3                   	retq   

0000000000421d9e <setval_322>:
  421d9e:	c7 07 48 89 e0 c7    	movl   $0xc7e08948,(%rdi)
  421da4:	c3                   	retq   

0000000000421da5 <addval_302>:
  421da5:	8d 87 48 89 e0 91    	lea    -0x6e1f76b8(%rdi),%eax
  421dab:	c3                   	retq   

0000000000421dac <addval_129>:
  421dac:	8d 87 48 89 e0 90    	lea    -0x6f1f76b8(%rdi),%eax
  421db2:	c3                   	retq   

0000000000421db3 <getval_455>:
  421db3:	b8 e6 89 c1 90       	mov    $0x90c189e6,%eax
  421db8:	c3                   	retq   

0000000000421db9 <getval_250>:
  421db9:	b8 89 ca 30 db       	mov    $0xdb30ca89,%eax
  421dbe:	c3                   	retq   

0000000000421dbf <getval_374>:
  421dbf:	b8 9a 89 c1 90       	mov    $0x90c1899a,%eax
  421dc4:	c3                   	retq   

0000000000421dc5 <setval_106>:
  421dc5:	c7 07 89 c1 60 c0    	movl   $0xc060c189,(%rdi)
  421dcb:	c3                   	retq   

0000000000421dcc <setval_466>:
  421dcc:	c7 07 09 c1 38 d2    	movl   $0xd238c109,(%rdi)
  421dd2:	c3                   	retq   

0000000000421dd3 <addval_382>:
  421dd3:	8d 87 68 89 e0 90    	lea    -0x6f1f7698(%rdi),%eax
  421dd9:	c3                   	retq   

0000000000421dda <addval_319>:
  421dda:	8d 87 4c 89 d6 c2    	lea    -0x3d2976b4(%rdi),%eax
  421de0:	c3                   	retq   

0000000000421de1 <setval_488>:
  421de1:	c7 07 48 89 e0 c1    	movl   $0xc1e08948,(%rdi)
  421de7:	c3                   	retq   

0000000000421de8 <addval_196>:
  421de8:	8d 87 99 ca c3 f1    	lea    -0xe3c3567(%rdi),%eax
  421dee:	c3                   	retq   

0000000000421def <getval_215>:
  421def:	b8 c9 d6 38 db       	mov    $0xdb38d6c9,%eax
  421df4:	c3                   	retq   

0000000000421df5 <getval_326>:
  421df5:	b8 a9 ca c3 78       	mov    $0x78c3caa9,%eax
  421dfa:	c3                   	retq   

0000000000421dfb <setval_450>:
  421dfb:	c7 07 89 d6 a4 d2    	movl   $0xd2a4d689,(%rdi)
  421e01:	c3                   	retq   

0000000000421e02 <addval_459>:
  421e02:	8d 87 89 ca 78 d2    	lea    -0x2d873577(%rdi),%eax
  421e08:	c3                   	retq   

0000000000421e09 <setval_239>:
  421e09:	c7 07 81 d6 08 c0    	movl   $0xc008d681,(%rdi)
  421e0f:	c3                   	retq   

0000000000421e10 <getval_130>:
  421e10:	b8 89 d6 30 d2       	mov    $0xd230d689,%eax
  421e15:	c3                   	retq   

0000000000421e16 <setval_391>:
  421e16:	c7 07 59 bb 89 d6    	movl   $0xd689bb59,(%rdi)
  421e1c:	c3                   	retq   

0000000000421e1d <setval_169>:
  421e1d:	c7 07 89 ca 20 c0    	movl   $0xc020ca89,(%rdi)
  421e23:	c3                   	retq   

0000000000421e24 <addval_143>:
  421e24:	8d 87 48 89 e0 c3    	lea    -0x3c1f76b8(%rdi),%eax
  421e2a:	c3                   	retq   

0000000000421e2b <addval_435>:
  421e2b:	8d 87 48 99 e0 90    	lea    -0x6f1f66b8(%rdi),%eax
  421e31:	c3                   	retq   

0000000000421e32 <setval_183>:
  421e32:	c7 07 99 c1 20 c0    	movl   $0xc020c199,(%rdi)
  421e38:	c3                   	retq   

0000000000421e39 <setval_293>:
  421e39:	c7 07 aa f4 a9 ca    	movl   $0xcaa9f4aa,(%rdi)
  421e3f:	c3                   	retq   

0000000000421e40 <setval_327>:
  421e40:	c7 07 8b c1 38 c9    	movl   $0xc938c18b,(%rdi)
  421e46:	c3                   	retq   

0000000000421e47 <addval_409>:
  421e47:	8d 87 89 c1 c7 22    	lea    0x22c7c189(%rdi),%eax
  421e4d:	c3                   	retq   

0000000000421e4e <addval_124>:
  421e4e:	8d 87 48 89 e0 c2    	lea    -0x3d1f76b8(%rdi),%eax
  421e54:	c3                   	retq   

0000000000421e55 <getval_321>:
  421e55:	b8 99 ca 20 c9       	mov    $0xc920ca99,%eax
  421e5a:	c3                   	retq   

0000000000421e5b <end_farm>:
  421e5b:	b8 01 00 00 00       	mov    $0x1,%eax
  421e60:	c3                   	retq   
  421e61:	66 2e 0f 1f 84 00 00 	nopw   %cs:0x0(%rax,%rax,1)
  421e68:	00 00 00 
  421e6b:	0f 1f 44 00 00       	nopl   0x0(%rax,%rax,1)

0000000000421e70 <save_char>:
  421e70:	8b 05 ae 42 20 00    	mov    0x2042ae(%rip),%eax        # 626124 <gets_cnt>
  421e76:	3d ff 03 00 00       	cmp    $0x3ff,%eax
  421e7b:	7f 49                	jg     421ec6 <save_char+0x56>
  421e7d:	8d 14 40             	lea    (%rax,%rax,2),%edx
  421e80:	89 f9                	mov    %edi,%ecx
  421e82:	c0 e9 04             	shr    $0x4,%cl
  421e85:	83 e1 0f             	and    $0xf,%ecx
  421e88:	0f b6 b1 10 3c 42 00 	movzbl 0x423c10(%rcx),%esi
  421e8f:	48 63 ca             	movslq %edx,%rcx
  421e92:	40 88 b1 20 55 62 00 	mov    %sil,0x625520(%rcx)
  421e99:	8d 4a 01             	lea    0x1(%rdx),%ecx
  421e9c:	83 e7 0f             	and    $0xf,%edi
  421e9f:	0f b6 b7 10 3c 42 00 	movzbl 0x423c10(%rdi),%esi
  421ea6:	48 63 c9             	movslq %ecx,%rcx
  421ea9:	40 88 b1 20 55 62 00 	mov    %sil,0x625520(%rcx)
  421eb0:	83 c2 02             	add    $0x2,%edx
  421eb3:	48 63 d2             	movslq %edx,%rdx
  421eb6:	c6 82 20 55 62 00 20 	movb   $0x20,0x625520(%rdx)
  421ebd:	83 c0 01             	add    $0x1,%eax
  421ec0:	89 05 5e 42 20 00    	mov    %eax,0x20425e(%rip)        # 626124 <gets_cnt>
  421ec6:	f3 c3                	repz retq 

0000000000421ec8 <save_term>:
  421ec8:	8b 05 56 42 20 00    	mov    0x204256(%rip),%eax        # 626124 <gets_cnt>
  421ece:	8d 04 40             	lea    (%rax,%rax,2),%eax
  421ed1:	48 98                	cltq   
  421ed3:	c6 80 20 55 62 00 00 	movb   $0x0,0x625520(%rax)
  421eda:	c3                   	retq   

0000000000421edb <check_fail>:
  421edb:	48 83 ec 08          	sub    $0x8,%rsp
  421edf:	0f be 35 42 42 20 00 	movsbl 0x204242(%rip),%esi        # 626128 <target_prefix>
  421ee6:	b9 20 55 62 00       	mov    $0x625520,%ecx
  421eeb:	8b 15 07 36 20 00    	mov    0x203607(%rip),%edx        # 6254f8 <check_level>
  421ef1:	bf 0b 39 42 00       	mov    $0x42390b,%edi
  421ef6:	b8 00 00 00 00       	mov    $0x0,%eax
  421efb:	e8 50 ee fd ff       	callq  400d50 <printf@plt>
  421f00:	bf 01 00 00 00       	mov    $0x1,%edi
  421f05:	e8 a6 ee fd ff       	callq  400db0 <exit@plt>

0000000000421f0a <Gets>:
  421f0a:	41 54                	push   %r12
  421f0c:	55                   	push   %rbp
  421f0d:	53                   	push   %rbx
  421f0e:	49 89 fc             	mov    %rdi,%r12
  421f11:	c7 05 09 42 20 00 00 	movl   $0x0,0x204209(%rip)        # 626124 <gets_cnt>
  421f18:	00 00 00 
  421f1b:	48 89 fb             	mov    %rdi,%rbx
  421f1e:	eb 11                	jmp    421f31 <Gets+0x27>
  421f20:	48 8d 6b 01          	lea    0x1(%rbx),%rbp
  421f24:	88 03                	mov    %al,(%rbx)
  421f26:	0f b6 f8             	movzbl %al,%edi
  421f29:	e8 42 ff ff ff       	callq  421e70 <save_char>
  421f2e:	48 89 eb             	mov    %rbp,%rbx
  421f31:	48 8b 3d b8 35 20 00 	mov    0x2035b8(%rip),%rdi        # 6254f0 <infile>
  421f38:	e8 03 ef fd ff       	callq  400e40 <_IO_getc@plt>
  421f3d:	83 f8 ff             	cmp    $0xffffffff,%eax
  421f40:	74 05                	je     421f47 <Gets+0x3d>
  421f42:	83 f8 0a             	cmp    $0xa,%eax
  421f45:	75 d9                	jne    421f20 <Gets+0x16>
  421f47:	c6 03 00             	movb   $0x0,(%rbx)
  421f4a:	b8 00 00 00 00       	mov    $0x0,%eax
  421f4f:	e8 74 ff ff ff       	callq  421ec8 <save_term>
  421f54:	4c 89 e0             	mov    %r12,%rax
  421f57:	5b                   	pop    %rbx
  421f58:	5d                   	pop    %rbp
  421f59:	41 5c                	pop    %r12
  421f5b:	c3                   	retq   

0000000000421f5c <notify_server>:
  421f5c:	83 3d a5 35 20 00 00 	cmpl   $0x0,0x2035a5(%rip)        # 625508 <is_checker>
  421f63:	0f 85 8e 01 00 00    	jne    4220f7 <notify_server+0x19b>
  421f69:	53                   	push   %rbx
  421f6a:	48 81 ec 10 40 00 00 	sub    $0x4010,%rsp
  421f71:	89 fb                	mov    %edi,%ebx
  421f73:	8b 05 ab 41 20 00    	mov    0x2041ab(%rip),%eax        # 626124 <gets_cnt>
  421f79:	83 c0 64             	add    $0x64,%eax
  421f7c:	3d 00 20 00 00       	cmp    $0x2000,%eax
  421f81:	7e 19                	jle    421f9c <notify_server+0x40>
  421f83:	bf 40 3a 42 00       	mov    $0x423a40,%edi
  421f88:	b8 00 00 00 00       	mov    $0x0,%eax
  421f8d:	e8 be ed fd ff       	callq  400d50 <printf@plt>
  421f92:	bf 01 00 00 00       	mov    $0x1,%edi
  421f97:	e8 14 ee fd ff       	callq  400db0 <exit@plt>
  421f9c:	44 0f be 0d 84 41 20 	movsbl 0x204184(%rip),%r9d        # 626128 <target_prefix>
  421fa3:	00 
  421fa4:	83 3d fd 34 20 00 00 	cmpl   $0x0,0x2034fd(%rip)        # 6254a8 <notify>
  421fab:	74 09                	je     421fb6 <notify_server+0x5a>
  421fad:	44 8b 05 4c 35 20 00 	mov    0x20354c(%rip),%r8d        # 625500 <authkey>
  421fb4:	eb 06                	jmp    421fbc <notify_server+0x60>
  421fb6:	41 b8 ff ff ff ff    	mov    $0xffffffff,%r8d
  421fbc:	85 db                	test   %ebx,%ebx
  421fbe:	74 07                	je     421fc7 <notify_server+0x6b>
  421fc0:	b9 21 39 42 00       	mov    $0x423921,%ecx
  421fc5:	eb 05                	jmp    421fcc <notify_server+0x70>
  421fc7:	b9 26 39 42 00       	mov    $0x423926,%ecx
  421fcc:	48 c7 44 24 08 20 55 	movq   $0x625520,0x8(%rsp)
  421fd3:	62 00 
  421fd5:	89 34 24             	mov    %esi,(%rsp)
  421fd8:	8b 15 8a 31 20 00    	mov    0x20318a(%rip),%edx        # 625168 <target_id>
  421fde:	be 2b 39 42 00       	mov    $0x42392b,%esi
  421fe3:	48 8d bc 24 10 20 00 	lea    0x2010(%rsp),%rdi
  421fea:	00 
  421feb:	b8 00 00 00 00       	mov    $0x0,%eax
  421ff0:	e8 6b ee fd ff       	callq  400e60 <sprintf@plt>
  421ff5:	83 3d ac 34 20 00 00 	cmpl   $0x0,0x2034ac(%rip)        # 6254a8 <notify>
  421ffc:	74 78                	je     422076 <notify_server+0x11a>
  421ffe:	4c 8d 4c 24 10       	lea    0x10(%rsp),%r9
  422003:	41 b8 00 00 00 00    	mov    $0x0,%r8d
  422009:	48 8d 8c 24 10 20 00 	lea    0x2010(%rsp),%rcx
  422010:	00 
  422011:	48 8b 15 58 31 20 00 	mov    0x203158(%rip),%rdx        # 625170 <lab>
  422018:	48 8b 35 59 31 20 00 	mov    0x203159(%rip),%rsi        # 625178 <course>
  42201f:	48 8b 3d 3a 31 20 00 	mov    0x20313a(%rip),%rdi        # 625160 <user_id>
  422026:	e8 b3 0f 00 00       	callq  422fde <driver_post>
  42202b:	85 c0                	test   %eax,%eax
  42202d:	79 1e                	jns    42204d <notify_server+0xf1>
  42202f:	48 8d 74 24 10       	lea    0x10(%rsp),%rsi
  422034:	bf 47 39 42 00       	mov    $0x423947,%edi
  422039:	b8 00 00 00 00       	mov    $0x0,%eax
  42203e:	e8 0d ed fd ff       	callq  400d50 <printf@plt>
  422043:	bf 01 00 00 00       	mov    $0x1,%edi
  422048:	e8 63 ed fd ff       	callq  400db0 <exit@plt>
  42204d:	85 db                	test   %ebx,%ebx
  42204f:	74 19                	je     42206a <notify_server+0x10e>
  422051:	bf 70 3a 42 00       	mov    $0x423a70,%edi
  422056:	e8 35 ed fd ff       	callq  400d90 <puts@plt>
  42205b:	bf 53 39 42 00       	mov    $0x423953,%edi
  422060:	e8 2b ed fd ff       	callq  400d90 <puts@plt>
  422065:	e9 85 00 00 00       	jmpq   4220ef <notify_server+0x193>
  42206a:	bf 5d 39 42 00       	mov    $0x42395d,%edi
  42206f:	e8 1c ed fd ff       	callq  400d90 <puts@plt>
  422074:	eb 79                	jmp    4220ef <notify_server+0x193>
  422076:	85 db                	test   %ebx,%ebx
  422078:	74 08                	je     422082 <notify_server+0x126>
  42207a:	be 21 39 42 00       	mov    $0x423921,%esi
  42207f:	90                   	nop
  422080:	eb 05                	jmp    422087 <notify_server+0x12b>
  422082:	be 26 39 42 00       	mov    $0x423926,%esi
  422087:	bf a8 3a 42 00       	mov    $0x423aa8,%edi
  42208c:	b8 00 00 00 00       	mov    $0x0,%eax
  422091:	e8 ba ec fd ff       	callq  400d50 <printf@plt>
  422096:	48 8b 35 c3 30 20 00 	mov    0x2030c3(%rip),%rsi        # 625160 <user_id>
  42209d:	bf 64 39 42 00       	mov    $0x423964,%edi
  4220a2:	b8 00 00 00 00       	mov    $0x0,%eax
  4220a7:	e8 a4 ec fd ff       	callq  400d50 <printf@plt>
  4220ac:	48 8b 35 c5 30 20 00 	mov    0x2030c5(%rip),%rsi        # 625178 <course>
  4220b3:	bf 71 39 42 00       	mov    $0x423971,%edi
  4220b8:	b8 00 00 00 00       	mov    $0x0,%eax
  4220bd:	e8 8e ec fd ff       	callq  400d50 <printf@plt>
  4220c2:	48 8b 35 a7 30 20 00 	mov    0x2030a7(%rip),%rsi        # 625170 <lab>
  4220c9:	bf 7d 39 42 00       	mov    $0x42397d,%edi
  4220ce:	b8 00 00 00 00       	mov    $0x0,%eax
  4220d3:	e8 78 ec fd ff       	callq  400d50 <printf@plt>
  4220d8:	48 8d b4 24 10 20 00 	lea    0x2010(%rsp),%rsi
  4220df:	00 
  4220e0:	bf 86 39 42 00       	mov    $0x423986,%edi
  4220e5:	b8 00 00 00 00       	mov    $0x0,%eax
  4220ea:	e8 61 ec fd ff       	callq  400d50 <printf@plt>
  4220ef:	48 81 c4 10 40 00 00 	add    $0x4010,%rsp
  4220f6:	5b                   	pop    %rbx
  4220f7:	f3 c3                	repz retq 

00000000004220f9 <validate>:
  4220f9:	53                   	push   %rbx
  4220fa:	89 fb                	mov    %edi,%ebx
  4220fc:	83 3d 05 34 20 00 00 	cmpl   $0x0,0x203405(%rip)        # 625508 <is_checker>
  422103:	74 60                	je     422165 <validate+0x6c>
  422105:	39 3d f1 33 20 00    	cmp    %edi,0x2033f1(%rip)        # 6254fc <vlevel>
  42210b:	74 14                	je     422121 <validate+0x28>
  42210d:	bf 92 39 42 00       	mov    $0x423992,%edi
  422112:	e8 79 ec fd ff       	callq  400d90 <puts@plt>
  422117:	b8 00 00 00 00       	mov    $0x0,%eax
  42211c:	e8 ba fd ff ff       	callq  421edb <check_fail>
  422121:	8b 35 d1 33 20 00    	mov    0x2033d1(%rip),%esi        # 6254f8 <check_level>
  422127:	39 fe                	cmp    %edi,%esi
  422129:	74 1b                	je     422146 <validate+0x4d>
  42212b:	89 fa                	mov    %edi,%edx
  42212d:	bf d0 3a 42 00       	mov    $0x423ad0,%edi
  422132:	b8 00 00 00 00       	mov    $0x0,%eax
  422137:	e8 14 ec fd ff       	callq  400d50 <printf@plt>
  42213c:	b8 00 00 00 00       	mov    $0x0,%eax
  422141:	e8 95 fd ff ff       	callq  421edb <check_fail>
  422146:	0f be 35 db 3f 20 00 	movsbl 0x203fdb(%rip),%esi        # 626128 <target_prefix>
  42214d:	b9 20 55 62 00       	mov    $0x625520,%ecx
  422152:	89 fa                	mov    %edi,%edx
  422154:	bf b0 39 42 00       	mov    $0x4239b0,%edi
  422159:	b8 00 00 00 00       	mov    $0x0,%eax
  42215e:	e8 ed eb fd ff       	callq  400d50 <printf@plt>
  422163:	eb 44                	jmp    4221a9 <validate+0xb0>
  422165:	39 3d 91 33 20 00    	cmp    %edi,0x203391(%rip)        # 6254fc <vlevel>
  42216b:	74 18                	je     422185 <validate+0x8c>
  42216d:	bf 92 39 42 00       	mov    $0x423992,%edi
  422172:	e8 19 ec fd ff       	callq  400d90 <puts@plt>
  422177:	89 de                	mov    %ebx,%esi
  422179:	bf 00 00 00 00       	mov    $0x0,%edi
  42217e:	e8 d9 fd ff ff       	callq  421f5c <notify_server>
  422183:	eb 24                	jmp    4221a9 <validate+0xb0>
  422185:	0f be 15 9c 3f 20 00 	movsbl 0x203f9c(%rip),%edx        # 626128 <target_prefix>
  42218c:	89 fe                	mov    %edi,%esi
  42218e:	bf f8 3a 42 00       	mov    $0x423af8,%edi
  422193:	b8 00 00 00 00       	mov    $0x0,%eax
  422198:	e8 b3 eb fd ff       	callq  400d50 <printf@plt>
  42219d:	89 de                	mov    %ebx,%esi
  42219f:	bf 01 00 00 00       	mov    $0x1,%edi
  4221a4:	e8 b3 fd ff ff       	callq  421f5c <notify_server>
  4221a9:	5b                   	pop    %rbx
  4221aa:	c3                   	retq   

00000000004221ab <fail>:
  4221ab:	48 83 ec 08          	sub    $0x8,%rsp
  4221af:	83 3d 52 33 20 00 00 	cmpl   $0x0,0x203352(%rip)        # 625508 <is_checker>
  4221b6:	74 0a                	je     4221c2 <fail+0x17>
  4221b8:	b8 00 00 00 00       	mov    $0x0,%eax
  4221bd:	e8 19 fd ff ff       	callq  421edb <check_fail>
  4221c2:	89 fe                	mov    %edi,%esi
  4221c4:	bf 00 00 00 00       	mov    $0x0,%edi
  4221c9:	e8 8e fd ff ff       	callq  421f5c <notify_server>
  4221ce:	48 83 c4 08          	add    $0x8,%rsp
  4221d2:	c3                   	retq   

00000000004221d3 <bushandler>:
  4221d3:	48 83 ec 08          	sub    $0x8,%rsp
  4221d7:	83 3d 2a 33 20 00 00 	cmpl   $0x0,0x20332a(%rip)        # 625508 <is_checker>
  4221de:	74 14                	je     4221f4 <bushandler+0x21>
  4221e0:	bf c5 39 42 00       	mov    $0x4239c5,%edi
  4221e5:	e8 a6 eb fd ff       	callq  400d90 <puts@plt>
  4221ea:	b8 00 00 00 00       	mov    $0x0,%eax
  4221ef:	e8 e7 fc ff ff       	callq  421edb <check_fail>
  4221f4:	bf 30 3b 42 00       	mov    $0x423b30,%edi
  4221f9:	e8 92 eb fd ff       	callq  400d90 <puts@plt>
  4221fe:	bf cf 39 42 00       	mov    $0x4239cf,%edi
  422203:	e8 88 eb fd ff       	callq  400d90 <puts@plt>
  422208:	be 00 00 00 00       	mov    $0x0,%esi
  42220d:	bf 00 00 00 00       	mov    $0x0,%edi
  422212:	e8 45 fd ff ff       	callq  421f5c <notify_server>
  422217:	bf 01 00 00 00       	mov    $0x1,%edi
  42221c:	e8 8f eb fd ff       	callq  400db0 <exit@plt>

0000000000422221 <seghandler>:
  422221:	48 83 ec 08          	sub    $0x8,%rsp
  422225:	83 3d dc 32 20 00 00 	cmpl   $0x0,0x2032dc(%rip)        # 625508 <is_checker>
  42222c:	74 14                	je     422242 <seghandler+0x21>
  42222e:	bf e5 39 42 00       	mov    $0x4239e5,%edi
  422233:	e8 58 eb fd ff       	callq  400d90 <puts@plt>
  422238:	b8 00 00 00 00       	mov    $0x0,%eax
  42223d:	e8 99 fc ff ff       	callq  421edb <check_fail>
  422242:	bf 50 3b 42 00       	mov    $0x423b50,%edi
  422247:	e8 44 eb fd ff       	callq  400d90 <puts@plt>
  42224c:	bf cf 39 42 00       	mov    $0x4239cf,%edi
  422251:	e8 3a eb fd ff       	callq  400d90 <puts@plt>
  422256:	be 00 00 00 00       	mov    $0x0,%esi
  42225b:	bf 00 00 00 00       	mov    $0x0,%edi
  422260:	e8 f7 fc ff ff       	callq  421f5c <notify_server>
  422265:	bf 01 00 00 00       	mov    $0x1,%edi
  42226a:	e8 41 eb fd ff       	callq  400db0 <exit@plt>

000000000042226f <illegalhandler>:
  42226f:	48 83 ec 08          	sub    $0x8,%rsp
  422273:	83 3d 8e 32 20 00 00 	cmpl   $0x0,0x20328e(%rip)        # 625508 <is_checker>
  42227a:	74 14                	je     422290 <illegalhandler+0x21>
  42227c:	bf f8 39 42 00       	mov    $0x4239f8,%edi
  422281:	e8 0a eb fd ff       	callq  400d90 <puts@plt>
  422286:	b8 00 00 00 00       	mov    $0x0,%eax
  42228b:	e8 4b fc ff ff       	callq  421edb <check_fail>
  422290:	bf 78 3b 42 00       	mov    $0x423b78,%edi
  422295:	e8 f6 ea fd ff       	callq  400d90 <puts@plt>
  42229a:	bf cf 39 42 00       	mov    $0x4239cf,%edi
  42229f:	e8 ec ea fd ff       	callq  400d90 <puts@plt>
  4222a4:	be 00 00 00 00       	mov    $0x0,%esi
  4222a9:	bf 00 00 00 00       	mov    $0x0,%edi
  4222ae:	e8 a9 fc ff ff       	callq  421f5c <notify_server>
  4222b3:	bf 01 00 00 00       	mov    $0x1,%edi
  4222b8:	e8 f3 ea fd ff       	callq  400db0 <exit@plt>

00000000004222bd <sigalrmhandler>:
  4222bd:	48 83 ec 08          	sub    $0x8,%rsp
  4222c1:	83 3d 40 32 20 00 00 	cmpl   $0x0,0x203240(%rip)        # 625508 <is_checker>
  4222c8:	74 14                	je     4222de <sigalrmhandler+0x21>
  4222ca:	bf 0c 3a 42 00       	mov    $0x423a0c,%edi
  4222cf:	e8 bc ea fd ff       	callq  400d90 <puts@plt>
  4222d4:	b8 00 00 00 00       	mov    $0x0,%eax
  4222d9:	e8 fd fb ff ff       	callq  421edb <check_fail>
  4222de:	be 05 00 00 00       	mov    $0x5,%esi
  4222e3:	bf a8 3b 42 00       	mov    $0x423ba8,%edi
  4222e8:	b8 00 00 00 00       	mov    $0x0,%eax
  4222ed:	e8 5e ea fd ff       	callq  400d50 <printf@plt>
  4222f2:	be 00 00 00 00       	mov    $0x0,%esi
  4222f7:	bf 00 00 00 00       	mov    $0x0,%edi
  4222fc:	e8 5b fc ff ff       	callq  421f5c <notify_server>
  422301:	bf 01 00 00 00       	mov    $0x1,%edi
  422306:	e8 a5 ea fd ff       	callq  400db0 <exit@plt>

000000000042230b <launch>:
  42230b:	55                   	push   %rbp
  42230c:	48 89 e5             	mov    %rsp,%rbp
  42230f:	48 89 fa             	mov    %rdi,%rdx
  422312:	48 8d 47 1e          	lea    0x1e(%rdi),%rax
  422316:	48 83 e0 f0          	and    $0xfffffffffffffff0,%rax
  42231a:	48 29 c4             	sub    %rax,%rsp
  42231d:	48 8d 7c 24 0f       	lea    0xf(%rsp),%rdi
  422322:	48 83 e7 f0          	and    $0xfffffffffffffff0,%rdi
  422326:	be f4 00 00 00       	mov    $0xf4,%esi
  42232b:	e8 30 ea fd ff       	callq  400d60 <memset@plt>
  422330:	48 8b 05 89 31 20 00 	mov    0x203189(%rip),%rax        # 6254c0 <stdin@@GLIBC_2.2.5>
  422337:	48 39 05 b2 31 20 00 	cmp    %rax,0x2031b2(%rip)        # 6254f0 <infile>
  42233e:	75 0f                	jne    42234f <launch+0x44>
  422340:	bf 14 3a 42 00       	mov    $0x423a14,%edi
  422345:	b8 00 00 00 00       	mov    $0x0,%eax
  42234a:	e8 01 ea fd ff       	callq  400d50 <printf@plt>
  42234f:	c7 05 a3 31 20 00 00 	movl   $0x0,0x2031a3(%rip)        # 6254fc <vlevel>
  422356:	00 00 00 
  422359:	b8 00 00 00 00       	mov    $0x0,%eax
  42235e:	e8 b7 f9 ff ff       	callq  421d1a <test>
  422363:	83 3d 9e 31 20 00 00 	cmpl   $0x0,0x20319e(%rip)        # 625508 <is_checker>
  42236a:	74 14                	je     422380 <launch+0x75>
  42236c:	bf 21 3a 42 00       	mov    $0x423a21,%edi
  422371:	e8 1a ea fd ff       	callq  400d90 <puts@plt>
  422376:	b8 00 00 00 00       	mov    $0x0,%eax
  42237b:	e8 5b fb ff ff       	callq  421edb <check_fail>
  422380:	bf 2c 3a 42 00       	mov    $0x423a2c,%edi
  422385:	e8 06 ea fd ff       	callq  400d90 <puts@plt>
  42238a:	c9                   	leaveq 
  42238b:	c3                   	retq   

000000000042238c <stable_launch>:
  42238c:	53                   	push   %rbx
  42238d:	48 89 3d 54 31 20 00 	mov    %rdi,0x203154(%rip)        # 6254e8 <global_offset>
  422394:	41 b9 00 00 00 00    	mov    $0x0,%r9d
  42239a:	41 b8 00 00 00 00    	mov    $0x0,%r8d
  4223a0:	b9 32 01 00 00       	mov    $0x132,%ecx
  4223a5:	ba 07 00 00 00       	mov    $0x7,%edx
  4223aa:	be 00 00 10 00       	mov    $0x100000,%esi
  4223af:	bf 00 60 58 55       	mov    $0x55586000,%edi
  4223b4:	e8 b7 eb fd ff       	callq  400f70 <mmap@plt>
  4223b9:	48 89 c3             	mov    %rax,%rbx
  4223bc:	48 3d 00 60 58 55    	cmp    $0x55586000,%rax
  4223c2:	74 32                	je     4223f6 <stable_launch+0x6a>
  4223c4:	be 00 00 10 00       	mov    $0x100000,%esi
  4223c9:	48 89 c7             	mov    %rax,%rdi
  4223cc:	e8 3f eb fd ff       	callq  400f10 <munmap@plt>
  4223d1:	ba 00 60 58 55       	mov    $0x55586000,%edx
  4223d6:	be e0 3b 42 00       	mov    $0x423be0,%esi
  4223db:	48 8b 3d ee 30 20 00 	mov    0x2030ee(%rip),%rdi        # 6254d0 <stderr@@GLIBC_2.2.5>
  4223e2:	b8 00 00 00 00       	mov    $0x0,%eax
  4223e7:	e8 44 eb fd ff       	callq  400f30 <fprintf@plt>
  4223ec:	bf 01 00 00 00       	mov    $0x1,%edi
  4223f1:	e8 ba e9 fd ff       	callq  400db0 <exit@plt>
  4223f6:	48 8d 90 f8 ff 0f 00 	lea    0xffff8(%rax),%rdx
  4223fd:	48 89 15 2c 3d 20 00 	mov    %rdx,0x203d2c(%rip)        # 626130 <stack_top>
  422404:	48 89 e0             	mov    %rsp,%rax
  422407:	48 89 d4             	mov    %rdx,%rsp
  42240a:	48 89 c2             	mov    %rax,%rdx
  42240d:	48 89 15 cc 30 20 00 	mov    %rdx,0x2030cc(%rip)        # 6254e0 <global_save_stack>
  422414:	48 8b 3d cd 30 20 00 	mov    0x2030cd(%rip),%rdi        # 6254e8 <global_offset>
  42241b:	e8 eb fe ff ff       	callq  42230b <launch>
  422420:	48 8b 05 b9 30 20 00 	mov    0x2030b9(%rip),%rax        # 6254e0 <global_save_stack>
  422427:	48 89 c4             	mov    %rax,%rsp
  42242a:	be 00 00 10 00       	mov    $0x100000,%esi
  42242f:	48 89 df             	mov    %rbx,%rdi
  422432:	e8 d9 ea fd ff       	callq  400f10 <munmap@plt>
  422437:	5b                   	pop    %rbx
  422438:	c3                   	retq   
  422439:	0f 1f 80 00 00 00 00 	nopl   0x0(%rax)

0000000000422440 <rio_readinitb>:
  422440:	89 37                	mov    %esi,(%rdi)
  422442:	c7 47 04 00 00 00 00 	movl   $0x0,0x4(%rdi)
  422449:	48 8d 47 10          	lea    0x10(%rdi),%rax
  42244d:	48 89 47 08          	mov    %rax,0x8(%rdi)
  422451:	c3                   	retq   

0000000000422452 <sigalrm_handler>:
  422452:	48 83 ec 08          	sub    $0x8,%rsp
  422456:	ba 00 00 00 00       	mov    $0x0,%edx
  42245b:	be 20 3c 42 00       	mov    $0x423c20,%esi
  422460:	48 8b 3d 69 30 20 00 	mov    0x203069(%rip),%rdi        # 6254d0 <stderr@@GLIBC_2.2.5>
  422467:	b8 00 00 00 00       	mov    $0x0,%eax
  42246c:	e8 bf ea fd ff       	callq  400f30 <fprintf@plt>
  422471:	bf 01 00 00 00       	mov    $0x1,%edi
  422476:	e8 35 e9 fd ff       	callq  400db0 <exit@plt>

000000000042247b <urlencode>:
  42247b:	41 54                	push   %r12
  42247d:	55                   	push   %rbp
  42247e:	53                   	push   %rbx
  42247f:	48 83 ec 10          	sub    $0x10,%rsp
  422483:	48 89 fb             	mov    %rdi,%rbx
  422486:	48 89 f5             	mov    %rsi,%rbp
  422489:	b8 00 00 00 00       	mov    $0x0,%eax
  42248e:	48 c7 c1 ff ff ff ff 	mov    $0xffffffffffffffff,%rcx
  422495:	f2 ae                	repnz scas %es:(%rdi),%al
  422497:	48 f7 d1             	not    %rcx
  42249a:	8d 41 ff             	lea    -0x1(%rcx),%eax
  42249d:	e9 93 00 00 00       	jmpq   422535 <urlencode+0xba>
  4224a2:	0f b6 13             	movzbl (%rbx),%edx
  4224a5:	80 fa 2a             	cmp    $0x2a,%dl
  4224a8:	0f 94 c1             	sete   %cl
  4224ab:	80 fa 2d             	cmp    $0x2d,%dl
  4224ae:	0f 94 c0             	sete   %al
  4224b1:	08 c1                	or     %al,%cl
  4224b3:	75 1f                	jne    4224d4 <urlencode+0x59>
  4224b5:	80 fa 2e             	cmp    $0x2e,%dl
  4224b8:	74 1a                	je     4224d4 <urlencode+0x59>
  4224ba:	80 fa 5f             	cmp    $0x5f,%dl
  4224bd:	74 15                	je     4224d4 <urlencode+0x59>
  4224bf:	8d 42 d0             	lea    -0x30(%rdx),%eax
  4224c2:	3c 09                	cmp    $0x9,%al
  4224c4:	76 0e                	jbe    4224d4 <urlencode+0x59>
  4224c6:	8d 42 bf             	lea    -0x41(%rdx),%eax
  4224c9:	3c 19                	cmp    $0x19,%al
  4224cb:	76 07                	jbe    4224d4 <urlencode+0x59>
  4224cd:	8d 42 9f             	lea    -0x61(%rdx),%eax
  4224d0:	3c 19                	cmp    $0x19,%al
  4224d2:	77 09                	ja     4224dd <urlencode+0x62>
  4224d4:	88 55 00             	mov    %dl,0x0(%rbp)
  4224d7:	48 8d 6d 01          	lea    0x1(%rbp),%rbp
  4224db:	eb 51                	jmp    42252e <urlencode+0xb3>
  4224dd:	80 fa 20             	cmp    $0x20,%dl
  4224e0:	75 0a                	jne    4224ec <urlencode+0x71>
  4224e2:	c6 45 00 2b          	movb   $0x2b,0x0(%rbp)
  4224e6:	48 8d 6d 01          	lea    0x1(%rbp),%rbp
  4224ea:	eb 42                	jmp    42252e <urlencode+0xb3>
  4224ec:	8d 42 e0             	lea    -0x20(%rdx),%eax
  4224ef:	3c 5f                	cmp    $0x5f,%al
  4224f1:	0f 96 c1             	setbe  %cl
  4224f4:	80 fa 09             	cmp    $0x9,%dl
  4224f7:	0f 94 c0             	sete   %al
  4224fa:	08 c1                	or     %al,%cl
  4224fc:	74 45                	je     422543 <urlencode+0xc8>
  4224fe:	0f b6 d2             	movzbl %dl,%edx
  422501:	be d5 3c 42 00       	mov    $0x423cd5,%esi
  422506:	48 89 e7             	mov    %rsp,%rdi
  422509:	b8 00 00 00 00       	mov    $0x0,%eax
  42250e:	e8 4d e9 fd ff       	callq  400e60 <sprintf@plt>
  422513:	0f b6 04 24          	movzbl (%rsp),%eax
  422517:	88 45 00             	mov    %al,0x0(%rbp)
  42251a:	0f b6 44 24 01       	movzbl 0x1(%rsp),%eax
  42251f:	88 45 01             	mov    %al,0x1(%rbp)
  422522:	0f b6 44 24 02       	movzbl 0x2(%rsp),%eax
  422527:	88 45 02             	mov    %al,0x2(%rbp)
  42252a:	48 8d 6d 03          	lea    0x3(%rbp),%rbp
  42252e:	48 83 c3 01          	add    $0x1,%rbx
  422532:	44 89 e0             	mov    %r12d,%eax
  422535:	44 8d 60 ff          	lea    -0x1(%rax),%r12d
  422539:	85 c0                	test   %eax,%eax
  42253b:	0f 85 61 ff ff ff    	jne    4224a2 <urlencode+0x27>
  422541:	eb 05                	jmp    422548 <urlencode+0xcd>
  422543:	b8 ff ff ff ff       	mov    $0xffffffff,%eax
  422548:	48 83 c4 10          	add    $0x10,%rsp
  42254c:	5b                   	pop    %rbx
  42254d:	5d                   	pop    %rbp
  42254e:	41 5c                	pop    %r12
  422550:	c3                   	retq   

0000000000422551 <rio_writen>:
  422551:	41 55                	push   %r13
  422553:	41 54                	push   %r12
  422555:	55                   	push   %rbp
  422556:	53                   	push   %rbx
  422557:	48 83 ec 08          	sub    $0x8,%rsp
  42255b:	41 89 fc             	mov    %edi,%r12d
  42255e:	48 89 f5             	mov    %rsi,%rbp
  422561:	49 89 d5             	mov    %rdx,%r13
  422564:	48 89 d3             	mov    %rdx,%rbx
  422567:	eb 28                	jmp    422591 <rio_writen+0x40>
  422569:	48 89 da             	mov    %rbx,%rdx
  42256c:	48 89 ee             	mov    %rbp,%rsi
  42256f:	44 89 e7             	mov    %r12d,%edi
  422572:	e8 c9 e9 fd ff       	callq  400f40 <write@plt>
  422577:	48 85 c0             	test   %rax,%rax
  42257a:	7f 0f                	jg     42258b <rio_writen+0x3a>
  42257c:	e8 5f e9 fd ff       	callq  400ee0 <__errno_location@plt>
  422581:	83 38 04             	cmpl   $0x4,(%rax)
  422584:	75 15                	jne    42259b <rio_writen+0x4a>
  422586:	b8 00 00 00 00       	mov    $0x0,%eax
  42258b:	48 29 c3             	sub    %rax,%rbx
  42258e:	48 01 c5             	add    %rax,%rbp
  422591:	48 85 db             	test   %rbx,%rbx
  422594:	75 d3                	jne    422569 <rio_writen+0x18>
  422596:	4c 89 e8             	mov    %r13,%rax
  422599:	eb 07                	jmp    4225a2 <rio_writen+0x51>
  42259b:	48 c7 c0 ff ff ff ff 	mov    $0xffffffffffffffff,%rax
  4225a2:	48 83 c4 08          	add    $0x8,%rsp
  4225a6:	5b                   	pop    %rbx
  4225a7:	5d                   	pop    %rbp
  4225a8:	41 5c                	pop    %r12
  4225aa:	41 5d                	pop    %r13
  4225ac:	c3                   	retq   

00000000004225ad <rio_read>:
  4225ad:	41 56                	push   %r14
  4225af:	41 55                	push   %r13
  4225b1:	41 54                	push   %r12
  4225b3:	55                   	push   %rbp
  4225b4:	53                   	push   %rbx
  4225b5:	48 89 fb             	mov    %rdi,%rbx
  4225b8:	49 89 f6             	mov    %rsi,%r14
  4225bb:	49 89 d5             	mov    %rdx,%r13
  4225be:	4c 8d 67 10          	lea    0x10(%rdi),%r12
  4225c2:	eb 2a                	jmp    4225ee <rio_read+0x41>
  4225c4:	ba 00 20 00 00       	mov    $0x2000,%edx
  4225c9:	4c 89 e6             	mov    %r12,%rsi
  4225cc:	8b 3b                	mov    (%rbx),%edi
  4225ce:	e8 0d e8 fd ff       	callq  400de0 <read@plt>
  4225d3:	89 43 04             	mov    %eax,0x4(%rbx)
  4225d6:	85 c0                	test   %eax,%eax
  4225d8:	79 0c                	jns    4225e6 <rio_read+0x39>
  4225da:	e8 01 e9 fd ff       	callq  400ee0 <__errno_location@plt>
  4225df:	83 38 04             	cmpl   $0x4,(%rax)
  4225e2:	74 0a                	je     4225ee <rio_read+0x41>
  4225e4:	eb 37                	jmp    42261d <rio_read+0x70>
  4225e6:	85 c0                	test   %eax,%eax
  4225e8:	74 3c                	je     422626 <rio_read+0x79>
  4225ea:	4c 89 63 08          	mov    %r12,0x8(%rbx)
  4225ee:	8b 6b 04             	mov    0x4(%rbx),%ebp
  4225f1:	85 ed                	test   %ebp,%ebp
  4225f3:	7e cf                	jle    4225c4 <rio_read+0x17>
  4225f5:	89 e8                	mov    %ebp,%eax
  4225f7:	4c 39 e8             	cmp    %r13,%rax
  4225fa:	72 03                	jb     4225ff <rio_read+0x52>
  4225fc:	44 89 ed             	mov    %r13d,%ebp
  4225ff:	4c 63 e5             	movslq %ebp,%r12
  422602:	48 8b 73 08          	mov    0x8(%rbx),%rsi
  422606:	4c 89 e2             	mov    %r12,%rdx
  422609:	4c 89 f7             	mov    %r14,%rdi
  42260c:	e8 4f e9 fd ff       	callq  400f60 <memcpy@plt>
  422611:	4c 01 63 08          	add    %r12,0x8(%rbx)
  422615:	29 6b 04             	sub    %ebp,0x4(%rbx)
  422618:	4c 89 e0             	mov    %r12,%rax
  42261b:	eb 0e                	jmp    42262b <rio_read+0x7e>
  42261d:	48 c7 c0 ff ff ff ff 	mov    $0xffffffffffffffff,%rax
  422624:	eb 05                	jmp    42262b <rio_read+0x7e>
  422626:	b8 00 00 00 00       	mov    $0x0,%eax
  42262b:	5b                   	pop    %rbx
  42262c:	5d                   	pop    %rbp
  42262d:	41 5c                	pop    %r12
  42262f:	41 5d                	pop    %r13
  422631:	41 5e                	pop    %r14
  422633:	c3                   	retq   

0000000000422634 <rio_readlineb>:
  422634:	41 55                	push   %r13
  422636:	41 54                	push   %r12
  422638:	55                   	push   %rbp
  422639:	53                   	push   %rbx
  42263a:	48 83 ec 18          	sub    $0x18,%rsp
  42263e:	49 89 fd             	mov    %rdi,%r13
  422641:	48 89 f5             	mov    %rsi,%rbp
  422644:	49 89 d4             	mov    %rdx,%r12
  422647:	bb 01 00 00 00       	mov    $0x1,%ebx
  42264c:	eb 3d                	jmp    42268b <rio_readlineb+0x57>
  42264e:	ba 01 00 00 00       	mov    $0x1,%edx
  422653:	48 8d 74 24 0f       	lea    0xf(%rsp),%rsi
  422658:	4c 89 ef             	mov    %r13,%rdi
  42265b:	e8 4d ff ff ff       	callq  4225ad <rio_read>
  422660:	83 f8 01             	cmp    $0x1,%eax
  422663:	75 12                	jne    422677 <rio_readlineb+0x43>
  422665:	48 8d 55 01          	lea    0x1(%rbp),%rdx
  422669:	0f b6 44 24 0f       	movzbl 0xf(%rsp),%eax
  42266e:	88 45 00             	mov    %al,0x0(%rbp)
  422671:	3c 0a                	cmp    $0xa,%al
  422673:	75 0f                	jne    422684 <rio_readlineb+0x50>
  422675:	eb 1b                	jmp    422692 <rio_readlineb+0x5e>
  422677:	85 c0                	test   %eax,%eax
  422679:	75 23                	jne    42269e <rio_readlineb+0x6a>
  42267b:	48 83 fb 01          	cmp    $0x1,%rbx
  42267f:	90                   	nop
  422680:	75 13                	jne    422695 <rio_readlineb+0x61>
  422682:	eb 23                	jmp    4226a7 <rio_readlineb+0x73>
  422684:	48 83 c3 01          	add    $0x1,%rbx
  422688:	48 89 d5             	mov    %rdx,%rbp
  42268b:	4c 39 e3             	cmp    %r12,%rbx
  42268e:	72 be                	jb     42264e <rio_readlineb+0x1a>
  422690:	eb 03                	jmp    422695 <rio_readlineb+0x61>
  422692:	48 89 d5             	mov    %rdx,%rbp
  422695:	c6 45 00 00          	movb   $0x0,0x0(%rbp)
  422699:	48 89 d8             	mov    %rbx,%rax
  42269c:	eb 0e                	jmp    4226ac <rio_readlineb+0x78>
  42269e:	48 c7 c0 ff ff ff ff 	mov    $0xffffffffffffffff,%rax
  4226a5:	eb 05                	jmp    4226ac <rio_readlineb+0x78>
  4226a7:	b8 00 00 00 00       	mov    $0x0,%eax
  4226ac:	48 83 c4 18          	add    $0x18,%rsp
  4226b0:	5b                   	pop    %rbx
  4226b1:	5d                   	pop    %rbp
  4226b2:	41 5c                	pop    %r12
  4226b4:	41 5d                	pop    %r13
  4226b6:	c3                   	retq   

00000000004226b7 <submitr>:
  4226b7:	41 57                	push   %r15
  4226b9:	41 56                	push   %r14
  4226bb:	41 55                	push   %r13
  4226bd:	41 54                	push   %r12
  4226bf:	55                   	push   %rbp
  4226c0:	53                   	push   %rbx
  4226c1:	48 81 ec 58 a0 00 00 	sub    $0xa058,%rsp
  4226c8:	49 89 fc             	mov    %rdi,%r12
  4226cb:	89 74 24 1c          	mov    %esi,0x1c(%rsp)
  4226cf:	48 89 54 24 10       	mov    %rdx,0x10(%rsp)
  4226d4:	49 89 cf             	mov    %rcx,%r15
  4226d7:	4d 89 c6             	mov    %r8,%r14
  4226da:	4d 89 cd             	mov    %r9,%r13
  4226dd:	48 8b 9c 24 90 a0 00 	mov    0xa090(%rsp),%rbx
  4226e4:	00 
  4226e5:	c7 84 24 2c 20 00 00 	movl   $0x0,0x202c(%rsp)
  4226ec:	00 00 00 00 
  4226f0:	ba 00 00 00 00       	mov    $0x0,%edx
  4226f5:	be 01 00 00 00       	mov    $0x1,%esi
  4226fa:	bf 02 00 00 00       	mov    $0x2,%edi
  4226ff:	e8 bc e7 fd ff       	callq  400ec0 <socket@plt>
  422704:	89 c5                	mov    %eax,%ebp
  422706:	85 c0                	test   %eax,%eax
  422708:	79 4e                	jns    422758 <submitr+0xa1>
  42270a:	48 b8 45 72 72 6f 72 	movabs $0x43203a726f727245,%rax
  422711:	3a 20 43 
  422714:	48 89 03             	mov    %rax,(%rbx)
  422717:	48 b8 6c 69 65 6e 74 	movabs $0x6e7520746e65696c,%rax
  42271e:	20 75 6e 
  422721:	48 89 43 08          	mov    %rax,0x8(%rbx)
  422725:	48 b8 61 62 6c 65 20 	movabs $0x206f7420656c6261,%rax
  42272c:	74 6f 20 
  42272f:	48 89 43 10          	mov    %rax,0x10(%rbx)
  422733:	48 b8 63 72 65 61 74 	movabs $0x7320657461657263,%rax
  42273a:	65 20 73 
  42273d:	48 89 43 18          	mov    %rax,0x18(%rbx)
  422741:	c7 43 20 6f 63 6b 65 	movl   $0x656b636f,0x20(%rbx)
  422748:	66 c7 43 24 74 00    	movw   $0x74,0x24(%rbx)
  42274e:	b8 ff ff ff ff       	mov    $0xffffffff,%eax
  422753:	e9 83 06 00 00       	jmpq   422ddb <submitr+0x724>
  422758:	4c 89 e7             	mov    %r12,%rdi
  42275b:	e8 20 e6 fd ff       	callq  400d80 <gethostbyname@plt>
  422760:	48 85 c0             	test   %rax,%rax
  422763:	75 75                	jne    4227da <submitr+0x123>
  422765:	48 b8 45 72 72 6f 72 	movabs $0x44203a726f727245,%rax
  42276c:	3a 20 44 
  42276f:	48 89 03             	mov    %rax,(%rbx)
  422772:	48 b8 4e 53 20 69 73 	movabs $0x6e7520736920534e,%rax
  422779:	20 75 6e 
  42277c:	48 89 43 08          	mov    %rax,0x8(%rbx)
  422780:	48 b8 61 62 6c 65 20 	movabs $0x206f7420656c6261,%rax
  422787:	74 6f 20 
  42278a:	48 89 43 10          	mov    %rax,0x10(%rbx)
  42278e:	48 b8 72 65 73 6f 6c 	movabs $0x2065766c6f736572,%rax
  422795:	76 65 20 
  422798:	48 89 43 18          	mov    %rax,0x18(%rbx)
  42279c:	48 b8 41 75 74 6f 6c 	movabs $0x2062616c6f747541,%rax
  4227a3:	61 62 20 
  4227a6:	48 89 43 20          	mov    %rax,0x20(%rbx)
  4227aa:	48 b8 73 65 72 76 65 	movabs $0x6120726576726573,%rax
  4227b1:	72 20 61 
  4227b4:	48 89 43 28          	mov    %rax,0x28(%rbx)
  4227b8:	c7 43 30 64 64 72 65 	movl   $0x65726464,0x30(%rbx)
  4227bf:	66 c7 43 34 73 73    	movw   $0x7373,0x34(%rbx)
  4227c5:	c6 43 36 00          	movb   $0x0,0x36(%rbx)
  4227c9:	89 ef                	mov    %ebp,%edi
  4227cb:	e8 a0 e5 fd ff       	callq  400d70 <close@plt>
  4227d0:	b8 ff ff ff ff       	mov    $0xffffffff,%eax
  4227d5:	e9 01 06 00 00       	jmpq   422ddb <submitr+0x724>
  4227da:	48 c7 84 24 40 a0 00 	movq   $0x0,0xa040(%rsp)
  4227e1:	00 00 00 00 00 
  4227e6:	48 c7 84 24 48 a0 00 	movq   $0x0,0xa048(%rsp)
  4227ed:	00 00 00 00 00 
  4227f2:	66 c7 84 24 40 a0 00 	movw   $0x2,0xa040(%rsp)
  4227f9:	00 02 00 
  4227fc:	48 8b 48 18          	mov    0x18(%rax),%rcx
  422800:	48 63 50 14          	movslq 0x14(%rax),%rdx
  422804:	48 8d b4 24 44 a0 00 	lea    0xa044(%rsp),%rsi
  42280b:	00 
  42280c:	48 8b 39             	mov    (%rcx),%rdi
  42280f:	e8 3c e6 fd ff       	callq  400e50 <bcopy@plt>
  422814:	0f b7 44 24 1c       	movzwl 0x1c(%rsp),%eax
  422819:	66 c1 c8 08          	ror    $0x8,%ax
  42281d:	66 89 84 24 42 a0 00 	mov    %ax,0xa042(%rsp)
  422824:	00 
  422825:	ba 10 00 00 00       	mov    $0x10,%edx
  42282a:	48 8d b4 24 40 a0 00 	lea    0xa040(%rsp),%rsi
  422831:	00 
  422832:	89 ef                	mov    %ebp,%edi
  422834:	e8 57 e6 fd ff       	callq  400e90 <connect@plt>
  422839:	85 c0                	test   %eax,%eax
  42283b:	79 67                	jns    4228a4 <submitr+0x1ed>
  42283d:	48 b8 45 72 72 6f 72 	movabs $0x55203a726f727245,%rax
  422844:	3a 20 55 
  422847:	48 89 03             	mov    %rax,(%rbx)
  42284a:	48 b8 6e 61 62 6c 65 	movabs $0x6f7420656c62616e,%rax
  422851:	20 74 6f 
  422854:	48 89 43 08          	mov    %rax,0x8(%rbx)
  422858:	48 b8 20 63 6f 6e 6e 	movabs $0x7463656e6e6f6320,%rax
  42285f:	65 63 74 
  422862:	48 89 43 10          	mov    %rax,0x10(%rbx)
  422866:	48 b8 20 74 6f 20 74 	movabs $0x20656874206f7420,%rax
  42286d:	68 65 20 
  422870:	48 89 43 18          	mov    %rax,0x18(%rbx)
  422874:	48 b8 41 75 74 6f 6c 	movabs $0x2062616c6f747541,%rax
  42287b:	61 62 20 
  42287e:	48 89 43 20          	mov    %rax,0x20(%rbx)
  422882:	c7 43 28 73 65 72 76 	movl   $0x76726573,0x28(%rbx)
  422889:	66 c7 43 2c 65 72    	movw   $0x7265,0x2c(%rbx)
  42288f:	c6 43 2e 00          	movb   $0x0,0x2e(%rbx)
  422893:	89 ef                	mov    %ebp,%edi
  422895:	e8 d6 e4 fd ff       	callq  400d70 <close@plt>
  42289a:	b8 ff ff ff ff       	mov    $0xffffffff,%eax
  42289f:	e9 37 05 00 00       	jmpq   422ddb <submitr+0x724>
  4228a4:	48 c7 c2 ff ff ff ff 	mov    $0xffffffffffffffff,%rdx
  4228ab:	4c 89 ef             	mov    %r13,%rdi
  4228ae:	b8 00 00 00 00       	mov    $0x0,%eax
  4228b3:	48 89 d1             	mov    %rdx,%rcx
  4228b6:	f2 ae                	repnz scas %es:(%rdi),%al
  4228b8:	48 f7 d1             	not    %rcx
  4228bb:	48 89 ce             	mov    %rcx,%rsi
  4228be:	48 8b 7c 24 10       	mov    0x10(%rsp),%rdi
  4228c3:	48 89 d1             	mov    %rdx,%rcx
  4228c6:	f2 ae                	repnz scas %es:(%rdi),%al
  4228c8:	48 f7 d1             	not    %rcx
  4228cb:	49 89 c8             	mov    %rcx,%r8
  4228ce:	4c 89 ff             	mov    %r15,%rdi
  4228d1:	48 89 d1             	mov    %rdx,%rcx
  4228d4:	f2 ae                	repnz scas %es:(%rdi),%al
  4228d6:	49 29 c8             	sub    %rcx,%r8
  4228d9:	4c 89 f7             	mov    %r14,%rdi
  4228dc:	48 89 d1             	mov    %rdx,%rcx
  4228df:	f2 ae                	repnz scas %es:(%rdi),%al
  4228e1:	49 29 c8             	sub    %rcx,%r8
  4228e4:	48 8d 44 76 fd       	lea    -0x3(%rsi,%rsi,2),%rax
  4228e9:	49 8d 44 00 7b       	lea    0x7b(%r8,%rax,1),%rax
  4228ee:	48 3d 00 20 00 00    	cmp    $0x2000,%rax
  4228f4:	76 72                	jbe    422968 <submitr+0x2b1>
  4228f6:	48 b8 45 72 72 6f 72 	movabs $0x52203a726f727245,%rax
  4228fd:	3a 20 52 
  422900:	48 89 03             	mov    %rax,(%rbx)
  422903:	48 b8 65 73 75 6c 74 	movabs $0x747320746c757365,%rax
  42290a:	20 73 74 
  42290d:	48 89 43 08          	mov    %rax,0x8(%rbx)
  422911:	48 b8 72 69 6e 67 20 	movabs $0x6f6f7420676e6972,%rax
  422918:	74 6f 6f 
  42291b:	48 89 43 10          	mov    %rax,0x10(%rbx)
  42291f:	48 b8 20 6c 61 72 67 	movabs $0x202e656772616c20,%rax
  422926:	65 2e 20 
  422929:	48 89 43 18          	mov    %rax,0x18(%rbx)
  42292d:	48 b8 49 6e 63 72 65 	movabs $0x6573616572636e49,%rax
  422934:	61 73 65 
  422937:	48 89 43 20          	mov    %rax,0x20(%rbx)
  42293b:	48 b8 20 53 55 42 4d 	movabs $0x5254494d42555320,%rax
  422942:	49 54 52 
  422945:	48 89 43 28          	mov    %rax,0x28(%rbx)
  422949:	48 b8 5f 4d 41 58 42 	movabs $0x46554258414d5f,%rax
  422950:	55 46 00 
  422953:	48 89 43 30          	mov    %rax,0x30(%rbx)
  422957:	89 ef                	mov    %ebp,%edi
  422959:	e8 12 e4 fd ff       	callq  400d70 <close@plt>
  42295e:	b8 ff ff ff ff       	mov    $0xffffffff,%eax
  422963:	e9 73 04 00 00       	jmpq   422ddb <submitr+0x724>
  422968:	48 8d b4 24 30 40 00 	lea    0x4030(%rsp),%rsi
  42296f:	00 
  422970:	b9 00 04 00 00       	mov    $0x400,%ecx
  422975:	b8 00 00 00 00       	mov    $0x0,%eax
  42297a:	48 89 f7             	mov    %rsi,%rdi
  42297d:	f3 48 ab             	rep stos %rax,%es:(%rdi)
  422980:	4c 89 ef             	mov    %r13,%rdi
  422983:	e8 f3 fa ff ff       	callq  42247b <urlencode>
  422988:	85 c0                	test   %eax,%eax
  42298a:	0f 89 8a 00 00 00    	jns    422a1a <submitr+0x363>
  422990:	48 b8 45 72 72 6f 72 	movabs $0x52203a726f727245,%rax
  422997:	3a 20 52 
  42299a:	48 89 03             	mov    %rax,(%rbx)
  42299d:	48 b8 65 73 75 6c 74 	movabs $0x747320746c757365,%rax
  4229a4:	20 73 74 
  4229a7:	48 89 43 08          	mov    %rax,0x8(%rbx)
  4229ab:	48 b8 72 69 6e 67 20 	movabs $0x6e6f6320676e6972,%rax
  4229b2:	63 6f 6e 
  4229b5:	48 89 43 10          	mov    %rax,0x10(%rbx)
  4229b9:	48 b8 74 61 69 6e 73 	movabs $0x6e6120736e696174,%rax
  4229c0:	20 61 6e 
  4229c3:	48 89 43 18          	mov    %rax,0x18(%rbx)
  4229c7:	48 b8 20 69 6c 6c 65 	movabs $0x6c6167656c6c6920,%rax
  4229ce:	67 61 6c 
  4229d1:	48 89 43 20          	mov    %rax,0x20(%rbx)
  4229d5:	48 b8 20 6f 72 20 75 	movabs $0x72706e7520726f20,%rax
  4229dc:	6e 70 72 
  4229df:	48 89 43 28          	mov    %rax,0x28(%rbx)
  4229e3:	48 b8 69 6e 74 61 62 	movabs $0x20656c6261746e69,%rax
  4229ea:	6c 65 20 
  4229ed:	48 89 43 30          	mov    %rax,0x30(%rbx)
  4229f1:	48 b8 63 68 61 72 61 	movabs $0x6574636172616863,%rax
  4229f8:	63 74 65 
  4229fb:	48 89 43 38          	mov    %rax,0x38(%rbx)
  4229ff:	66 c7 43 40 72 2e    	movw   $0x2e72,0x40(%rbx)
  422a05:	c6 43 42 00          	movb   $0x0,0x42(%rbx)
  422a09:	89 ef                	mov    %ebp,%edi
  422a0b:	e8 60 e3 fd ff       	callq  400d70 <close@plt>
  422a10:	b8 ff ff ff ff       	mov    $0xffffffff,%eax
  422a15:	e9 c1 03 00 00       	jmpq   422ddb <submitr+0x724>
  422a1a:	4c 89 24 24          	mov    %r12,(%rsp)
  422a1e:	4c 8d 8c 24 30 40 00 	lea    0x4030(%rsp),%r9
  422a25:	00 
  422a26:	4d 89 f8             	mov    %r15,%r8
  422a29:	4c 89 f1             	mov    %r14,%rcx
  422a2c:	48 8b 54 24 10       	mov    0x10(%rsp),%rdx
  422a31:	be 48 3c 42 00       	mov    $0x423c48,%esi
  422a36:	48 8d bc 24 30 60 00 	lea    0x6030(%rsp),%rdi
  422a3d:	00 
  422a3e:	b8 00 00 00 00       	mov    $0x0,%eax
  422a43:	e8 18 e4 fd ff       	callq  400e60 <sprintf@plt>
  422a48:	48 8d bc 24 30 60 00 	lea    0x6030(%rsp),%rdi
  422a4f:	00 
  422a50:	b8 00 00 00 00       	mov    $0x0,%eax
  422a55:	48 c7 c1 ff ff ff ff 	mov    $0xffffffffffffffff,%rcx
  422a5c:	f2 ae                	repnz scas %es:(%rdi),%al
  422a5e:	48 f7 d1             	not    %rcx
  422a61:	48 8d 51 ff          	lea    -0x1(%rcx),%rdx
  422a65:	48 8d b4 24 30 60 00 	lea    0x6030(%rsp),%rsi
  422a6c:	00 
  422a6d:	89 ef                	mov    %ebp,%edi
  422a6f:	e8 dd fa ff ff       	callq  422551 <rio_writen>
  422a74:	48 85 c0             	test   %rax,%rax
  422a77:	79 6b                	jns    422ae4 <submitr+0x42d>
  422a79:	48 b8 45 72 72 6f 72 	movabs $0x43203a726f727245,%rax
  422a80:	3a 20 43 
  422a83:	48 89 03             	mov    %rax,(%rbx)
  422a86:	48 b8 6c 69 65 6e 74 	movabs $0x6e7520746e65696c,%rax
  422a8d:	20 75 6e 
  422a90:	48 89 43 08          	mov    %rax,0x8(%rbx)
  422a94:	48 b8 61 62 6c 65 20 	movabs $0x206f7420656c6261,%rax
  422a9b:	74 6f 20 
  422a9e:	48 89 43 10          	mov    %rax,0x10(%rbx)
  422aa2:	48 b8 77 72 69 74 65 	movabs $0x6f74206574697277,%rax
  422aa9:	20 74 6f 
  422aac:	48 89 43 18          	mov    %rax,0x18(%rbx)
  422ab0:	48 b8 20 74 68 65 20 	movabs $0x7475412065687420,%rax
  422ab7:	41 75 74 
  422aba:	48 89 43 20          	mov    %rax,0x20(%rbx)
  422abe:	48 b8 6f 6c 61 62 20 	movabs $0x7265732062616c6f,%rax
  422ac5:	73 65 72 
  422ac8:	48 89 43 28          	mov    %rax,0x28(%rbx)
  422acc:	c7 43 30 76 65 72 00 	movl   $0x726576,0x30(%rbx)
  422ad3:	89 ef                	mov    %ebp,%edi
  422ad5:	e8 96 e2 fd ff       	callq  400d70 <close@plt>
  422ada:	b8 ff ff ff ff       	mov    $0xffffffff,%eax
  422adf:	e9 f7 02 00 00       	jmpq   422ddb <submitr+0x724>
  422ae4:	89 ee                	mov    %ebp,%esi
  422ae6:	48 8d bc 24 30 80 00 	lea    0x8030(%rsp),%rdi
  422aed:	00 
  422aee:	e8 4d f9 ff ff       	callq  422440 <rio_readinitb>
  422af3:	ba 00 20 00 00       	mov    $0x2000,%edx
  422af8:	48 8d b4 24 30 60 00 	lea    0x6030(%rsp),%rsi
  422aff:	00 
  422b00:	48 8d bc 24 30 80 00 	lea    0x8030(%rsp),%rdi
  422b07:	00 
  422b08:	e8 27 fb ff ff       	callq  422634 <rio_readlineb>
  422b0d:	48 85 c0             	test   %rax,%rax
  422b10:	7f 7f                	jg     422b91 <submitr+0x4da>
  422b12:	48 b8 45 72 72 6f 72 	movabs $0x43203a726f727245,%rax
  422b19:	3a 20 43 
  422b1c:	48 89 03             	mov    %rax,(%rbx)
  422b1f:	48 b8 6c 69 65 6e 74 	movabs $0x6e7520746e65696c,%rax
  422b26:	20 75 6e 
  422b29:	48 89 43 08          	mov    %rax,0x8(%rbx)
  422b2d:	48 b8 61 62 6c 65 20 	movabs $0x206f7420656c6261,%rax
  422b34:	74 6f 20 
  422b37:	48 89 43 10          	mov    %rax,0x10(%rbx)
  422b3b:	48 b8 72 65 61 64 20 	movabs $0x7269662064616572,%rax
  422b42:	66 69 72 
  422b45:	48 89 43 18          	mov    %rax,0x18(%rbx)
  422b49:	48 b8 73 74 20 68 65 	movabs $0x6564616568207473,%rax
  422b50:	61 64 65 
  422b53:	48 89 43 20          	mov    %rax,0x20(%rbx)
  422b57:	48 b8 72 20 66 72 6f 	movabs $0x41206d6f72662072,%rax
  422b5e:	6d 20 41 
  422b61:	48 89 43 28          	mov    %rax,0x28(%rbx)
  422b65:	48 b8 75 74 6f 6c 61 	movabs $0x732062616c6f7475,%rax
  422b6c:	62 20 73 
  422b6f:	48 89 43 30          	mov    %rax,0x30(%rbx)
  422b73:	c7 43 38 65 72 76 65 	movl   $0x65767265,0x38(%rbx)
  422b7a:	66 c7 43 3c 72 00    	movw   $0x72,0x3c(%rbx)
  422b80:	89 ef                	mov    %ebp,%edi
  422b82:	e8 e9 e1 fd ff       	callq  400d70 <close@plt>
  422b87:	b8 ff ff ff ff       	mov    $0xffffffff,%eax
  422b8c:	e9 4a 02 00 00       	jmpq   422ddb <submitr+0x724>
  422b91:	4c 8d 44 24 20       	lea    0x20(%rsp),%r8
  422b96:	48 8d 8c 24 2c 20 00 	lea    0x202c(%rsp),%rcx
  422b9d:	00 
  422b9e:	48 8d 94 24 30 20 00 	lea    0x2030(%rsp),%rdx
  422ba5:	00 
  422ba6:	be dc 3c 42 00       	mov    $0x423cdc,%esi
  422bab:	48 8d bc 24 30 60 00 	lea    0x6030(%rsp),%rdi
  422bb2:	00 
  422bb3:	b8 00 00 00 00       	mov    $0x0,%eax
  422bb8:	e8 e3 e1 fd ff       	callq  400da0 <__isoc99_sscanf@plt>
  422bbd:	e9 95 00 00 00       	jmpq   422c57 <submitr+0x5a0>
  422bc2:	ba 00 20 00 00       	mov    $0x2000,%edx
  422bc7:	48 8d b4 24 30 60 00 	lea    0x6030(%rsp),%rsi
  422bce:	00 
  422bcf:	48 8d bc 24 30 80 00 	lea    0x8030(%rsp),%rdi
  422bd6:	00 
  422bd7:	e8 58 fa ff ff       	callq  422634 <rio_readlineb>
  422bdc:	48 85 c0             	test   %rax,%rax
  422bdf:	7f 76                	jg     422c57 <submitr+0x5a0>
  422be1:	48 b8 45 72 72 6f 72 	movabs $0x43203a726f727245,%rax
  422be8:	3a 20 43 
  422beb:	48 89 03             	mov    %rax,(%rbx)
  422bee:	48 b8 6c 69 65 6e 74 	movabs $0x6e7520746e65696c,%rax
  422bf5:	20 75 6e 
  422bf8:	48 89 43 08          	mov    %rax,0x8(%rbx)
  422bfc:	48 b8 61 62 6c 65 20 	movabs $0x206f7420656c6261,%rax
  422c03:	74 6f 20 
  422c06:	48 89 43 10          	mov    %rax,0x10(%rbx)
  422c0a:	48 b8 72 65 61 64 20 	movabs $0x6165682064616572,%rax
  422c11:	68 65 61 
  422c14:	48 89 43 18          	mov    %rax,0x18(%rbx)
  422c18:	48 b8 64 65 72 73 20 	movabs $0x6f72662073726564,%rax
  422c1f:	66 72 6f 
  422c22:	48 89 43 20          	mov    %rax,0x20(%rbx)
  422c26:	48 b8 6d 20 41 75 74 	movabs $0x616c6f747541206d,%rax
  422c2d:	6f 6c 61 
  422c30:	48 89 43 28          	mov    %rax,0x28(%rbx)
  422c34:	48 b8 62 20 73 65 72 	movabs $0x7265767265732062,%rax
  422c3b:	76 65 72 
  422c3e:	48 89 43 30          	mov    %rax,0x30(%rbx)
  422c42:	c6 43 38 00          	movb   $0x0,0x38(%rbx)
  422c46:	89 ef                	mov    %ebp,%edi
  422c48:	e8 23 e1 fd ff       	callq  400d70 <close@plt>
  422c4d:	b8 ff ff ff ff       	mov    $0xffffffff,%eax
  422c52:	e9 84 01 00 00       	jmpq   422ddb <submitr+0x724>
  422c57:	0f b6 84 24 30 60 00 	movzbl 0x6030(%rsp),%eax
  422c5e:	00 
  422c5f:	83 e8 0d             	sub    $0xd,%eax
  422c62:	75 15                	jne    422c79 <submitr+0x5c2>
  422c64:	0f b6 84 24 31 60 00 	movzbl 0x6031(%rsp),%eax
  422c6b:	00 
  422c6c:	83 e8 0a             	sub    $0xa,%eax
  422c6f:	75 08                	jne    422c79 <submitr+0x5c2>
  422c71:	0f b6 84 24 32 60 00 	movzbl 0x6032(%rsp),%eax
  422c78:	00 
  422c79:	85 c0                	test   %eax,%eax
  422c7b:	0f 85 41 ff ff ff    	jne    422bc2 <submitr+0x50b>
  422c81:	ba 00 20 00 00       	mov    $0x2000,%edx
  422c86:	48 8d b4 24 30 60 00 	lea    0x6030(%rsp),%rsi
  422c8d:	00 
  422c8e:	48 8d bc 24 30 80 00 	lea    0x8030(%rsp),%rdi
  422c95:	00 
  422c96:	e8 99 f9 ff ff       	callq  422634 <rio_readlineb>
  422c9b:	48 85 c0             	test   %rax,%rax
  422c9e:	0f 8f 80 00 00 00    	jg     422d24 <submitr+0x66d>
  422ca4:	48 b8 45 72 72 6f 72 	movabs $0x43203a726f727245,%rax
  422cab:	3a 20 43 
  422cae:	48 89 03             	mov    %rax,(%rbx)
  422cb1:	48 b8 6c 69 65 6e 74 	movabs $0x6e7520746e65696c,%rax
  422cb8:	20 75 6e 
  422cbb:	48 89 43 08          	mov    %rax,0x8(%rbx)
  422cbf:	48 b8 61 62 6c 65 20 	movabs $0x206f7420656c6261,%rax
  422cc6:	74 6f 20 
  422cc9:	48 89 43 10          	mov    %rax,0x10(%rbx)
  422ccd:	48 b8 72 65 61 64 20 	movabs $0x6174732064616572,%rax
  422cd4:	73 74 61 
  422cd7:	48 89 43 18          	mov    %rax,0x18(%rbx)
  422cdb:	48 b8 74 75 73 20 6d 	movabs $0x7373656d20737574,%rax
  422ce2:	65 73 73 
  422ce5:	48 89 43 20          	mov    %rax,0x20(%rbx)
  422ce9:	48 b8 61 67 65 20 66 	movabs $0x6d6f726620656761,%rax
  422cf0:	72 6f 6d 
  422cf3:	48 89 43 28          	mov    %rax,0x28(%rbx)
  422cf7:	48 b8 20 41 75 74 6f 	movabs $0x62616c6f74754120,%rax
  422cfe:	6c 61 62 
  422d01:	48 89 43 30          	mov    %rax,0x30(%rbx)
  422d05:	48 b8 20 73 65 72 76 	movabs $0x72657672657320,%rax
  422d0c:	65 72 00 
  422d0f:	48 89 43 38          	mov    %rax,0x38(%rbx)
  422d13:	89 ef                	mov    %ebp,%edi
  422d15:	e8 56 e0 fd ff       	callq  400d70 <close@plt>
  422d1a:	b8 ff ff ff ff       	mov    $0xffffffff,%eax
  422d1f:	e9 b7 00 00 00       	jmpq   422ddb <submitr+0x724>
  422d24:	8b 94 24 2c 20 00 00 	mov    0x202c(%rsp),%edx
  422d2b:	81 fa c8 00 00 00    	cmp    $0xc8,%edx
  422d31:	74 28                	je     422d5b <submitr+0x6a4>
  422d33:	48 8d 4c 24 20       	lea    0x20(%rsp),%rcx
  422d38:	be a8 3c 42 00       	mov    $0x423ca8,%esi
  422d3d:	48 89 df             	mov    %rbx,%rdi
  422d40:	b8 00 00 00 00       	mov    $0x0,%eax
  422d45:	e8 16 e1 fd ff       	callq  400e60 <sprintf@plt>
  422d4a:	89 ef                	mov    %ebp,%edi
  422d4c:	e8 1f e0 fd ff       	callq  400d70 <close@plt>
  422d51:	b8 ff ff ff ff       	mov    $0xffffffff,%eax
  422d56:	e9 80 00 00 00       	jmpq   422ddb <submitr+0x724>
  422d5b:	48 8d b4 24 30 60 00 	lea    0x6030(%rsp),%rsi
  422d62:	00 
  422d63:	48 89 df             	mov    %rbx,%rdi
  422d66:	e8 95 e1 fd ff       	callq  400f00 <strcpy@plt>
  422d6b:	89 ef                	mov    %ebp,%edi
  422d6d:	e8 fe df fd ff       	callq  400d70 <close@plt>
  422d72:	0f b6 03             	movzbl (%rbx),%eax
  422d75:	83 e8 4f             	sub    $0x4f,%eax
  422d78:	75 18                	jne    422d92 <submitr+0x6db>
  422d7a:	0f b6 53 01          	movzbl 0x1(%rbx),%edx
  422d7e:	83 ea 4b             	sub    $0x4b,%edx
  422d81:	75 11                	jne    422d94 <submitr+0x6dd>
  422d83:	0f b6 53 02          	movzbl 0x2(%rbx),%edx
  422d87:	83 ea 0a             	sub    $0xa,%edx
  422d8a:	75 08                	jne    422d94 <submitr+0x6dd>
  422d8c:	0f b6 53 03          	movzbl 0x3(%rbx),%edx
  422d90:	eb 02                	jmp    422d94 <submitr+0x6dd>
  422d92:	89 c2                	mov    %eax,%edx
  422d94:	85 d2                	test   %edx,%edx
  422d96:	74 30                	je     422dc8 <submitr+0x711>
  422d98:	bf ed 3c 42 00       	mov    $0x423ced,%edi
  422d9d:	b9 05 00 00 00       	mov    $0x5,%ecx
  422da2:	48 89 de             	mov    %rbx,%rsi
  422da5:	f3 a6                	repz cmpsb %es:(%rdi),%ds:(%rsi)
  422da7:	0f 97 c1             	seta   %cl
  422daa:	0f 92 c2             	setb   %dl
  422dad:	38 d1                	cmp    %dl,%cl
  422daf:	74 1e                	je     422dcf <submitr+0x718>
  422db1:	85 c0                	test   %eax,%eax
  422db3:	75 0d                	jne    422dc2 <submitr+0x70b>
  422db5:	0f b6 43 01          	movzbl 0x1(%rbx),%eax
  422db9:	83 e8 4b             	sub    $0x4b,%eax
  422dbc:	75 04                	jne    422dc2 <submitr+0x70b>
  422dbe:	0f b6 43 02          	movzbl 0x2(%rbx),%eax
  422dc2:	85 c0                	test   %eax,%eax
  422dc4:	75 10                	jne    422dd6 <submitr+0x71f>
  422dc6:	eb 13                	jmp    422ddb <submitr+0x724>
  422dc8:	b8 00 00 00 00       	mov    $0x0,%eax
  422dcd:	eb 0c                	jmp    422ddb <submitr+0x724>
  422dcf:	b8 00 00 00 00       	mov    $0x0,%eax
  422dd4:	eb 05                	jmp    422ddb <submitr+0x724>
  422dd6:	b8 ff ff ff ff       	mov    $0xffffffff,%eax
  422ddb:	48 81 c4 58 a0 00 00 	add    $0xa058,%rsp
  422de2:	5b                   	pop    %rbx
  422de3:	5d                   	pop    %rbp
  422de4:	41 5c                	pop    %r12
  422de6:	41 5d                	pop    %r13
  422de8:	41 5e                	pop    %r14
  422dea:	41 5f                	pop    %r15
  422dec:	c3                   	retq   

0000000000422ded <init_timeout>:
  422ded:	53                   	push   %rbx
  422dee:	89 fb                	mov    %edi,%ebx
  422df0:	85 ff                	test   %edi,%edi
  422df2:	74 1f                	je     422e13 <init_timeout+0x26>
  422df4:	85 ff                	test   %edi,%edi
  422df6:	79 05                	jns    422dfd <init_timeout+0x10>
  422df8:	bb 00 00 00 00       	mov    $0x0,%ebx
  422dfd:	be 52 24 42 00       	mov    $0x422452,%esi
  422e02:	bf 0e 00 00 00       	mov    $0xe,%edi
  422e07:	e8 a4 e0 fd ff       	callq  400eb0 <signal@plt>
  422e0c:	89 df                	mov    %ebx,%edi
  422e0e:	e8 bd e0 fd ff       	callq  400ed0 <alarm@plt>
  422e13:	5b                   	pop    %rbx
  422e14:	c3                   	retq   

0000000000422e15 <init_driver>:
  422e15:	55                   	push   %rbp
  422e16:	53                   	push   %rbx
  422e17:	48 83 ec 18          	sub    $0x18,%rsp
  422e1b:	48 89 fd             	mov    %rdi,%rbp
  422e1e:	be 01 00 00 00       	mov    $0x1,%esi
  422e23:	bf 0d 00 00 00       	mov    $0xd,%edi
  422e28:	e8 83 e0 fd ff       	callq  400eb0 <signal@plt>
  422e2d:	be 01 00 00 00       	mov    $0x1,%esi
  422e32:	bf 1d 00 00 00       	mov    $0x1d,%edi
  422e37:	e8 74 e0 fd ff       	callq  400eb0 <signal@plt>
  422e3c:	be 01 00 00 00       	mov    $0x1,%esi
  422e41:	bf 1d 00 00 00       	mov    $0x1d,%edi
  422e46:	e8 65 e0 fd ff       	callq  400eb0 <signal@plt>
  422e4b:	ba 00 00 00 00       	mov    $0x0,%edx
  422e50:	be 01 00 00 00       	mov    $0x1,%esi
  422e55:	bf 02 00 00 00       	mov    $0x2,%edi
  422e5a:	e8 61 e0 fd ff       	callq  400ec0 <socket@plt>
  422e5f:	89 c3                	mov    %eax,%ebx
  422e61:	85 c0                	test   %eax,%eax
  422e63:	79 4f                	jns    422eb4 <init_driver+0x9f>
  422e65:	48 b8 45 72 72 6f 72 	movabs $0x43203a726f727245,%rax
  422e6c:	3a 20 43 
  422e6f:	48 89 45 00          	mov    %rax,0x0(%rbp)
  422e73:	48 b8 6c 69 65 6e 74 	movabs $0x6e7520746e65696c,%rax
  422e7a:	20 75 6e 
  422e7d:	48 89 45 08          	mov    %rax,0x8(%rbp)
  422e81:	48 b8 61 62 6c 65 20 	movabs $0x206f7420656c6261,%rax
  422e88:	74 6f 20 
  422e8b:	48 89 45 10          	mov    %rax,0x10(%rbp)
  422e8f:	48 b8 63 72 65 61 74 	movabs $0x7320657461657263,%rax
  422e96:	65 20 73 
  422e99:	48 89 45 18          	mov    %rax,0x18(%rbp)
  422e9d:	c7 45 20 6f 63 6b 65 	movl   $0x656b636f,0x20(%rbp)
  422ea4:	66 c7 45 24 74 00    	movw   $0x74,0x24(%rbp)
  422eaa:	b8 ff ff ff ff       	mov    $0xffffffff,%eax
  422eaf:	e9 23 01 00 00       	jmpq   422fd7 <init_driver+0x1c2>
  422eb4:	bf f2 3c 42 00       	mov    $0x423cf2,%edi
  422eb9:	e8 c2 de fd ff       	callq  400d80 <gethostbyname@plt>
  422ebe:	48 85 c0             	test   %rax,%rax
  422ec1:	75 68                	jne    422f2b <init_driver+0x116>
  422ec3:	48 b8 45 72 72 6f 72 	movabs $0x44203a726f727245,%rax
  422eca:	3a 20 44 
  422ecd:	48 89 45 00          	mov    %rax,0x0(%rbp)
  422ed1:	48 b8 4e 53 20 69 73 	movabs $0x6e7520736920534e,%rax
  422ed8:	20 75 6e 
  422edb:	48 89 45 08          	mov    %rax,0x8(%rbp)
  422edf:	48 b8 61 62 6c 65 20 	movabs $0x206f7420656c6261,%rax
  422ee6:	74 6f 20 
  422ee9:	48 89 45 10          	mov    %rax,0x10(%rbp)
  422eed:	48 b8 72 65 73 6f 6c 	movabs $0x2065766c6f736572,%rax
  422ef4:	76 65 20 
  422ef7:	48 89 45 18          	mov    %rax,0x18(%rbp)
  422efb:	48 b8 73 65 72 76 65 	movabs $0x6120726576726573,%rax
  422f02:	72 20 61 
  422f05:	48 89 45 20          	mov    %rax,0x20(%rbp)
  422f09:	c7 45 28 64 64 72 65 	movl   $0x65726464,0x28(%rbp)
  422f10:	66 c7 45 2c 73 73    	movw   $0x7373,0x2c(%rbp)
  422f16:	c6 45 2e 00          	movb   $0x0,0x2e(%rbp)
  422f1a:	89 df                	mov    %ebx,%edi
  422f1c:	e8 4f de fd ff       	callq  400d70 <close@plt>
  422f21:	b8 ff ff ff ff       	mov    $0xffffffff,%eax
  422f26:	e9 ac 00 00 00       	jmpq   422fd7 <init_driver+0x1c2>
  422f2b:	48 c7 04 24 00 00 00 	movq   $0x0,(%rsp)
  422f32:	00 
  422f33:	48 c7 44 24 08 00 00 	movq   $0x0,0x8(%rsp)
  422f3a:	00 00 
  422f3c:	66 c7 04 24 02 00    	movw   $0x2,(%rsp)
  422f42:	48 8b 48 18          	mov    0x18(%rax),%rcx
  422f46:	48 63 50 14          	movslq 0x14(%rax),%rdx
  422f4a:	48 8d 74 24 04       	lea    0x4(%rsp),%rsi
  422f4f:	48 8b 39             	mov    (%rcx),%rdi
  422f52:	e8 f9 de fd ff       	callq  400e50 <bcopy@plt>
  422f57:	66 c7 44 24 02 00 50 	movw   $0x5000,0x2(%rsp)
  422f5e:	ba 10 00 00 00       	mov    $0x10,%edx
  422f63:	48 89 e6             	mov    %rsp,%rsi
  422f66:	89 df                	mov    %ebx,%edi
  422f68:	e8 23 df fd ff       	callq  400e90 <connect@plt>
  422f6d:	85 c0                	test   %eax,%eax
  422f6f:	79 50                	jns    422fc1 <init_driver+0x1ac>
  422f71:	48 b8 45 72 72 6f 72 	movabs $0x55203a726f727245,%rax
  422f78:	3a 20 55 
  422f7b:	48 89 45 00          	mov    %rax,0x0(%rbp)
  422f7f:	48 b8 6e 61 62 6c 65 	movabs $0x6f7420656c62616e,%rax
  422f86:	20 74 6f 
  422f89:	48 89 45 08          	mov    %rax,0x8(%rbp)
  422f8d:	48 b8 20 63 6f 6e 6e 	movabs $0x7463656e6e6f6320,%rax
  422f94:	65 63 74 
  422f97:	48 89 45 10          	mov    %rax,0x10(%rbp)
  422f9b:	48 b8 20 74 6f 20 73 	movabs $0x76726573206f7420,%rax
  422fa2:	65 72 76 
  422fa5:	48 89 45 18          	mov    %rax,0x18(%rbp)
  422fa9:	66 c7 45 20 65 72    	movw   $0x7265,0x20(%rbp)
  422faf:	c6 45 22 00          	movb   $0x0,0x22(%rbp)
  422fb3:	89 df                	mov    %ebx,%edi
  422fb5:	e8 b6 dd fd ff       	callq  400d70 <close@plt>
  422fba:	b8 ff ff ff ff       	mov    $0xffffffff,%eax
  422fbf:	eb 16                	jmp    422fd7 <init_driver+0x1c2>
  422fc1:	89 df                	mov    %ebx,%edi
  422fc3:	e8 a8 dd fd ff       	callq  400d70 <close@plt>
  422fc8:	66 c7 45 00 4f 4b    	movw   $0x4b4f,0x0(%rbp)
  422fce:	c6 45 02 00          	movb   $0x0,0x2(%rbp)
  422fd2:	b8 00 00 00 00       	mov    $0x0,%eax
  422fd7:	48 83 c4 18          	add    $0x18,%rsp
  422fdb:	5b                   	pop    %rbx
  422fdc:	5d                   	pop    %rbp
  422fdd:	c3                   	retq   

0000000000422fde <driver_post>:
  422fde:	53                   	push   %rbx
  422fdf:	48 83 ec 10          	sub    $0x10,%rsp
  422fe3:	4c 89 cb             	mov    %r9,%rbx
  422fe6:	45 85 c0             	test   %r8d,%r8d
  422fe9:	74 22                	je     42300d <driver_post+0x2f>
  422feb:	48 89 ce             	mov    %rcx,%rsi
  422fee:	bf 09 3d 42 00       	mov    $0x423d09,%edi
  422ff3:	b8 00 00 00 00       	mov    $0x0,%eax
  422ff8:	e8 53 dd fd ff       	callq  400d50 <printf@plt>
  422ffd:	66 c7 03 4f 4b       	movw   $0x4b4f,(%rbx)
  423002:	c6 43 02 00          	movb   $0x0,0x2(%rbx)
  423006:	b8 00 00 00 00       	mov    $0x0,%eax
  42300b:	eb 39                	jmp    423046 <driver_post+0x68>
  42300d:	48 85 ff             	test   %rdi,%rdi
  423010:	74 26                	je     423038 <driver_post+0x5a>
  423012:	80 3f 00             	cmpb   $0x0,(%rdi)
  423015:	74 21                	je     423038 <driver_post+0x5a>
  423017:	4c 89 0c 24          	mov    %r9,(%rsp)
  42301b:	49 89 c9             	mov    %rcx,%r9
  42301e:	49 89 d0             	mov    %rdx,%r8
  423021:	48 89 f9             	mov    %rdi,%rcx
  423024:	48 89 f2             	mov    %rsi,%rdx
  423027:	be 50 00 00 00       	mov    $0x50,%esi
  42302c:	bf f2 3c 42 00       	mov    $0x423cf2,%edi
  423031:	e8 81 f6 ff ff       	callq  4226b7 <submitr>
  423036:	eb 0e                	jmp    423046 <driver_post+0x68>
  423038:	66 c7 03 4f 4b       	movw   $0x4b4f,(%rbx)
  42303d:	c6 43 02 00          	movb   $0x0,0x2(%rbx)
  423041:	b8 00 00 00 00       	mov    $0x0,%eax
  423046:	48 83 c4 10          	add    $0x10,%rsp
  42304a:	5b                   	pop    %rbx
  42304b:	c3                   	retq   

000000000042304c <check>:
  42304c:	89 f8                	mov    %edi,%eax
  42304e:	c1 e8 1c             	shr    $0x1c,%eax
  423051:	85 c0                	test   %eax,%eax
  423053:	74 1d                	je     423072 <check+0x26>
  423055:	b9 00 00 00 00       	mov    $0x0,%ecx
  42305a:	eb 0b                	jmp    423067 <check+0x1b>
  42305c:	89 f8                	mov    %edi,%eax
  42305e:	d3 e8                	shr    %cl,%eax
  423060:	3c 0a                	cmp    $0xa,%al
  423062:	74 14                	je     423078 <check+0x2c>
  423064:	83 c1 08             	add    $0x8,%ecx
  423067:	83 f9 1f             	cmp    $0x1f,%ecx
  42306a:	7e f0                	jle    42305c <check+0x10>
  42306c:	b8 01 00 00 00       	mov    $0x1,%eax
  423071:	c3                   	retq   
  423072:	b8 00 00 00 00       	mov    $0x0,%eax
  423077:	c3                   	retq   
  423078:	b8 00 00 00 00       	mov    $0x0,%eax
  42307d:	c3                   	retq   

000000000042307e <gencookie>:
  42307e:	53                   	push   %rbx
  42307f:	83 c7 01             	add    $0x1,%edi
  423082:	e8 99 dd fd ff       	callq  400e20 <srandom@plt>
  423087:	e8 94 de fd ff       	callq  400f20 <random@plt>
  42308c:	89 c3                	mov    %eax,%ebx
  42308e:	89 c7                	mov    %eax,%edi
  423090:	e8 b7 ff ff ff       	callq  42304c <check>
  423095:	85 c0                	test   %eax,%eax
  423097:	74 ee                	je     423087 <gencookie+0x9>
  423099:	89 d8                	mov    %ebx,%eax
  42309b:	5b                   	pop    %rbx
  42309c:	c3                   	retq   

000000000042309d <checkhash>:
  42309d:	53                   	push   %rbx
  42309e:	48 81 ec f0 00 00 00 	sub    $0xf0,%rsp
  4230a5:	48 b8 66 31 39 2d 31 	movabs $0x313235312d393166,%rax
  4230ac:	35 32 31 
  4230af:	48 89 84 24 e0 00 00 	mov    %rax,0xe0(%rsp)
  4230b6:	00 
  4230b7:	66 c7 84 24 e8 00 00 	movw   $0x33,0xe8(%rsp)
  4230be:	00 33 00 
  4230c1:	48 b8 61 74 74 61 63 	movabs $0x616c6b6361747461,%rax
  4230c8:	6b 6c 61 
  4230cb:	48 89 84 24 d0 00 00 	mov    %rax,0xd0(%rsp)
  4230d2:	00 
  4230d3:	66 c7 84 24 d8 00 00 	movw   $0x62,0xd8(%rsp)
  4230da:	00 62 00 
  4230dd:	48 b8 42 4f 4f 47 41 	movabs $0x4f4f4241474f4f42,%rax
  4230e4:	42 4f 4f 
  4230e7:	48 89 84 24 c0 00 00 	mov    %rax,0xc0(%rsp)
  4230ee:	00 
  4230ef:	66 c7 84 24 c8 00 00 	movw   $0x4147,0xc8(%rsp)
  4230f6:	00 47 41 
  4230f9:	c6 84 24 ca 00 00 00 	movb   $0x0,0xca(%rsp)
  423100:	00 
  423101:	48 b8 6b 65 79 2e 74 	movabs $0x7478742e79656b,%rax
  423108:	78 74 00 
  42310b:	48 89 84 24 b0 00 00 	mov    %rax,0xb0(%rsp)
  423112:	00 
  423113:	be cd 39 42 00       	mov    $0x4239cd,%esi
  423118:	48 8d bc 24 b0 00 00 	lea    0xb0(%rsp),%rdi
  42311f:	00 
  423120:	e8 db dc fd ff       	callq  400e00 <fopen@plt>
  423125:	48 89 c3             	mov    %rax,%rbx
  423128:	48 85 c0             	test   %rax,%rax
  42312b:	75 21                	jne    42314e <checkhash+0xb1>
  42312d:	48 8d b4 24 b0 00 00 	lea    0xb0(%rsp),%rsi
  423134:	00 
  423135:	bf 28 3d 42 00       	mov    $0x423d28,%edi
  42313a:	b8 00 00 00 00       	mov    $0x0,%eax
  42313f:	e8 0c dc fd ff       	callq  400d50 <printf@plt>
  423144:	bf 01 00 00 00       	mov    $0x1,%edi
  423149:	e8 62 dc fd ff       	callq  400db0 <exit@plt>
  42314e:	48 89 c2             	mov    %rax,%rdx
  423151:	be 0a 00 00 00       	mov    $0xa,%esi
  423156:	48 8d bc 24 a0 00 00 	lea    0xa0(%rsp),%rdi
  42315d:	00 
  42315e:	e8 cd dc fd ff       	callq  400e30 <fgets@plt>
  423163:	48 85 c0             	test   %rax,%rax
  423166:	75 1c                	jne    423184 <checkhash+0xe7>
  423168:	48 8d b4 24 b0 00 00 	lea    0xb0(%rsp),%rsi
  42316f:	00 
  423170:	bf 60 3d 42 00       	mov    $0x423d60,%edi
  423175:	e8 d6 db fd ff       	callq  400d50 <printf@plt>
  42317a:	bf 01 00 00 00       	mov    $0x1,%edi
  42317f:	e8 2c dc fd ff       	callq  400db0 <exit@plt>
  423184:	48 8d bc 24 a0 00 00 	lea    0xa0(%rsp),%rdi
  42318b:	00 
  42318c:	b8 00 00 00 00       	mov    $0x0,%eax
  423191:	48 c7 c1 ff ff ff ff 	mov    $0xffffffffffffffff,%rcx
  423198:	f2 ae                	repnz scas %es:(%rdi),%al
  42319a:	48 f7 d1             	not    %rcx
  42319d:	48 83 e9 02          	sub    $0x2,%rcx
  4231a1:	80 bc 0c a0 00 00 00 	cmpb   $0xa,0xa0(%rsp,%rcx,1)
  4231a8:	0a 
  4231a9:	75 08                	jne    4231b3 <checkhash+0x116>
  4231ab:	c6 84 0c a0 00 00 00 	movb   $0x0,0xa0(%rsp,%rcx,1)
  4231b2:	00 
  4231b3:	48 89 da             	mov    %rbx,%rdx
  4231b6:	be 21 00 00 00       	mov    $0x21,%esi
  4231bb:	48 89 e7             	mov    %rsp,%rdi
  4231be:	e8 6d dc fd ff       	callq  400e30 <fgets@plt>
  4231c3:	48 85 c0             	test   %rax,%rax
  4231c6:	75 1c                	jne    4231e4 <checkhash+0x147>
  4231c8:	48 8d b4 24 b0 00 00 	lea    0xb0(%rsp),%rsi
  4231cf:	00 
  4231d0:	bf 88 3d 42 00       	mov    $0x423d88,%edi
  4231d5:	e8 76 db fd ff       	callq  400d50 <printf@plt>
  4231da:	bf 01 00 00 00       	mov    $0x1,%edi
  4231df:	e8 cc db fd ff       	callq  400db0 <exit@plt>
  4231e4:	48 89 e7             	mov    %rsp,%rdi
  4231e7:	b8 00 00 00 00       	mov    $0x0,%eax
  4231ec:	48 c7 c1 ff ff ff ff 	mov    $0xffffffffffffffff,%rcx
  4231f3:	f2 ae                	repnz scas %es:(%rdi),%al
  4231f5:	48 f7 d1             	not    %rcx
  4231f8:	48 83 e9 02          	sub    $0x2,%rcx
  4231fc:	80 3c 0c 0a          	cmpb   $0xa,(%rsp,%rcx,1)
  423200:	75 04                	jne    423206 <checkhash+0x169>
  423202:	c6 04 0c 00          	movb   $0x0,(%rsp,%rcx,1)
  423206:	c6 44 24 60 00       	movb   $0x0,0x60(%rsp)
  42320b:	48 8d b4 24 e0 00 00 	lea    0xe0(%rsp),%rsi
  423212:	00 
  423213:	48 8d 7c 24 60       	lea    0x60(%rsp),%rdi
  423218:	e8 53 dc fd ff       	callq  400e70 <strcat@plt>
  42321d:	48 8d b4 24 d0 00 00 	lea    0xd0(%rsp),%rsi
  423224:	00 
  423225:	48 8d 7c 24 60       	lea    0x60(%rsp),%rdi
  42322a:	e8 41 dc fd ff       	callq  400e70 <strcat@plt>
  42322f:	48 8d b4 24 a0 00 00 	lea    0xa0(%rsp),%rsi
  423236:	00 
  423237:	48 8d 7c 24 60       	lea    0x60(%rsp),%rdi
  42323c:	e8 2f dc fd ff       	callq  400e70 <strcat@plt>
  423241:	48 8d b4 24 c0 00 00 	lea    0xc0(%rsp),%rsi
  423248:	00 
  423249:	48 8d 7c 24 60       	lea    0x60(%rsp),%rdi
  42324e:	e8 1d dc fd ff       	callq  400e70 <strcat@plt>
  423253:	48 8d 7c 24 60       	lea    0x60(%rsp),%rdi
  423258:	b8 00 00 00 00       	mov    $0x0,%eax
  42325d:	48 c7 c1 ff ff ff ff 	mov    $0xffffffffffffffff,%rcx
  423264:	f2 ae                	repnz scas %es:(%rdi),%al
  423266:	48 f7 d1             	not    %rcx
  423269:	48 8d 71 ff          	lea    -0x1(%rcx),%rsi
  42326d:	48 8d 94 24 90 00 00 	lea    0x90(%rsp),%rdx
  423274:	00 
  423275:	48 8d 7c 24 60       	lea    0x60(%rsp),%rdi
  42327a:	e8 c1 da fd ff       	callq  400d40 <MD5@plt>
  42327f:	bb 00 00 00 00       	mov    $0x0,%ebx
  423284:	eb 43                	jmp    4232c9 <checkhash+0x22c>
  423286:	48 63 c3             	movslq %ebx,%rax
  423289:	8d 3c 1b             	lea    (%rbx,%rbx,1),%edi
  42328c:	0f b6 94 04 90 00 00 	movzbl 0x90(%rsp,%rax,1),%edx
  423293:	00 
  423294:	48 63 ff             	movslq %edi,%rdi
  423297:	48 8d 44 24 30       	lea    0x30(%rsp),%rax
  42329c:	48 01 c7             	add    %rax,%rdi
  42329f:	be 20 3d 42 00       	mov    $0x423d20,%esi
  4232a4:	b8 00 00 00 00       	mov    $0x0,%eax
  4232a9:	e8 b2 db fd ff       	callq  400e60 <sprintf@plt>
  4232ae:	85 c0                	test   %eax,%eax
  4232b0:	79 14                	jns    4232c6 <checkhash+0x229>
  4232b2:	bf b0 3d 42 00       	mov    $0x423db0,%edi
  4232b7:	e8 d4 da fd ff       	callq  400d90 <puts@plt>
  4232bc:	bf 01 00 00 00       	mov    $0x1,%edi
  4232c1:	e8 ea da fd ff       	callq  400db0 <exit@plt>
  4232c6:	83 c3 01             	add    $0x1,%ebx
  4232c9:	83 fb 0f             	cmp    $0xf,%ebx
  4232cc:	76 b8                	jbe    423286 <checkhash+0x1e9>
  4232ce:	48 89 e6             	mov    %rsp,%rsi
  4232d1:	48 8d 7c 24 30       	lea    0x30(%rsp),%rdi
  4232d6:	e8 15 dc fd ff       	callq  400ef0 <strcmp@plt>
  4232db:	85 c0                	test   %eax,%eax
  4232dd:	75 04                	jne    4232e3 <checkhash+0x246>
  4232df:	b0 01                	mov    $0x1,%al
  4232e1:	eb 05                	jmp    4232e8 <checkhash+0x24b>
  4232e3:	b8 00 00 00 00       	mov    $0x0,%eax
  4232e8:	48 81 c4 f0 00 00 00 	add    $0xf0,%rsp
  4232ef:	5b                   	pop    %rbx
  4232f0:	c3                   	retq   
  4232f1:	66 2e 0f 1f 84 00 00 	nopw   %cs:0x0(%rax,%rax,1)
  4232f8:	00 00 00 
  4232fb:	0f 1f 44 00 00       	nopl   0x0(%rax,%rax,1)

0000000000423300 <__libc_csu_init>:
  423300:	41 57                	push   %r15
  423302:	41 89 ff             	mov    %edi,%r15d
  423305:	41 56                	push   %r14
  423307:	49 89 f6             	mov    %rsi,%r14
  42330a:	41 55                	push   %r13
  42330c:	49 89 d5             	mov    %rdx,%r13
  42330f:	41 54                	push   %r12
  423311:	4c 8d 25 e8 1a 20 00 	lea    0x201ae8(%rip),%r12        # 624e00 <__frame_dummy_init_array_entry>
  423318:	55                   	push   %rbp
  423319:	48 8d 2d e8 1a 20 00 	lea    0x201ae8(%rip),%rbp        # 624e08 <__init_array_end>
  423320:	53                   	push   %rbx
  423321:	4c 29 e5             	sub    %r12,%rbp
  423324:	31 db                	xor    %ebx,%ebx
  423326:	48 c1 fd 03          	sar    $0x3,%rbp
  42332a:	48 83 ec 08          	sub    $0x8,%rsp
  42332e:	e8 d5 d9 fd ff       	callq  400d08 <_init>
  423333:	48 85 ed             	test   %rbp,%rbp
  423336:	74 1e                	je     423356 <__libc_csu_init+0x56>
  423338:	0f 1f 84 00 00 00 00 	nopl   0x0(%rax,%rax,1)
  42333f:	00 
  423340:	4c 89 ea             	mov    %r13,%rdx
  423343:	4c 89 f6             	mov    %r14,%rsi
  423346:	44 89 ff             	mov    %r15d,%edi
  423349:	41 ff 14 dc          	callq  *(%r12,%rbx,8)
  42334d:	48 83 c3 01          	add    $0x1,%rbx
  423351:	48 39 eb             	cmp    %rbp,%rbx
  423354:	75 ea                	jne    423340 <__libc_csu_init+0x40>
  423356:	48 83 c4 08          	add    $0x8,%rsp
  42335a:	5b                   	pop    %rbx
  42335b:	5d                   	pop    %rbp
  42335c:	41 5c                	pop    %r12
  42335e:	41 5d                	pop    %r13
  423360:	41 5e                	pop    %r14
  423362:	41 5f                	pop    %r15
  423364:	c3                   	retq   
  423365:	90                   	nop
  423366:	66 2e 0f 1f 84 00 00 	nopw   %cs:0x0(%rax,%rax,1)
  42336d:	00 00 00 

0000000000423370 <__libc_csu_fini>:
  423370:	f3 c3                	repz retq 

Disassembly of section .init:

0000000000400d08 <_init>:
  400d08:	48 83 ec 08          	sub    $0x8,%rsp
  400d0c:	48 8b 05 e5 42 22 00 	mov    0x2242e5(%rip),%rax        # 624ff8 <__gmon_start__>
  400d13:	48 85 c0             	test   %rax,%rax
  400d16:	74 05                	je     400d1d <_init+0x15>
  400d18:	e8 73 02 00 00       	callq  400f90 <.plt.got>
  400d1d:	48 83 c4 08          	add    $0x8,%rsp
  400d21:	c3                   	retq   

Disassembly of section .plt:

0000000000400d30 <.plt>:
  400d30:	ff 35 d2 42 22 00    	pushq  0x2242d2(%rip)        # 625008 <_GLOBAL_OFFSET_TABLE_+0x8>
  400d36:	ff 25 d4 42 22 00    	jmpq   *0x2242d4(%rip)        # 625010 <_GLOBAL_OFFSET_TABLE_+0x10>
  400d3c:	0f 1f 40 00          	nopl   0x0(%rax)

0000000000400d40 <MD5@plt>:
  400d40:	ff 25 d2 42 22 00    	jmpq   *0x2242d2(%rip)        # 625018 <MD5@libcrypto.so.10>
  400d46:	68 00 00 00 00       	pushq  $0x0
  400d4b:	e9 e0 ff ff ff       	jmpq   400d30 <.plt>

0000000000400d50 <printf@plt>:
  400d50:	ff 25 ca 42 22 00    	jmpq   *0x2242ca(%rip)        # 625020 <printf@GLIBC_2.2.5>
  400d56:	68 01 00 00 00       	pushq  $0x1
  400d5b:	e9 d0 ff ff ff       	jmpq   400d30 <.plt>

0000000000400d60 <memset@plt>:
  400d60:	ff 25 c2 42 22 00    	jmpq   *0x2242c2(%rip)        # 625028 <memset@GLIBC_2.2.5>
  400d66:	68 02 00 00 00       	pushq  $0x2
  400d6b:	e9 c0 ff ff ff       	jmpq   400d30 <.plt>

0000000000400d70 <close@plt>:
  400d70:	ff 25 ba 42 22 00    	jmpq   *0x2242ba(%rip)        # 625030 <close@GLIBC_2.2.5>
  400d76:	68 03 00 00 00       	pushq  $0x3
  400d7b:	e9 b0 ff ff ff       	jmpq   400d30 <.plt>

0000000000400d80 <gethostbyname@plt>:
  400d80:	ff 25 b2 42 22 00    	jmpq   *0x2242b2(%rip)        # 625038 <gethostbyname@GLIBC_2.2.5>
  400d86:	68 04 00 00 00       	pushq  $0x4
  400d8b:	e9 a0 ff ff ff       	jmpq   400d30 <.plt>

0000000000400d90 <puts@plt>:
  400d90:	ff 25 aa 42 22 00    	jmpq   *0x2242aa(%rip)        # 625040 <puts@GLIBC_2.2.5>
  400d96:	68 05 00 00 00       	pushq  $0x5
  400d9b:	e9 90 ff ff ff       	jmpq   400d30 <.plt>

0000000000400da0 <__isoc99_sscanf@plt>:
  400da0:	ff 25 a2 42 22 00    	jmpq   *0x2242a2(%rip)        # 625048 <__isoc99_sscanf@GLIBC_2.7>
  400da6:	68 06 00 00 00       	pushq  $0x6
  400dab:	e9 80 ff ff ff       	jmpq   400d30 <.plt>

0000000000400db0 <exit@plt>:
  400db0:	ff 25 9a 42 22 00    	jmpq   *0x22429a(%rip)        # 625050 <exit@GLIBC_2.2.5>
  400db6:	68 07 00 00 00       	pushq  $0x7
  400dbb:	e9 70 ff ff ff       	jmpq   400d30 <.plt>

0000000000400dc0 <strcasecmp@plt>:
  400dc0:	ff 25 92 42 22 00    	jmpq   *0x224292(%rip)        # 625058 <strcasecmp@GLIBC_2.2.5>
  400dc6:	68 08 00 00 00       	pushq  $0x8
  400dcb:	e9 60 ff ff ff       	jmpq   400d30 <.plt>

0000000000400dd0 <getopt@plt>:
  400dd0:	ff 25 8a 42 22 00    	jmpq   *0x22428a(%rip)        # 625060 <getopt@GLIBC_2.2.5>
  400dd6:	68 09 00 00 00       	pushq  $0x9
  400ddb:	e9 50 ff ff ff       	jmpq   400d30 <.plt>

0000000000400de0 <read@plt>:
  400de0:	ff 25 82 42 22 00    	jmpq   *0x224282(%rip)        # 625068 <read@GLIBC_2.2.5>
  400de6:	68 0a 00 00 00       	pushq  $0xa
  400deb:	e9 40 ff ff ff       	jmpq   400d30 <.plt>

0000000000400df0 <strncmp@plt>:
  400df0:	ff 25 7a 42 22 00    	jmpq   *0x22427a(%rip)        # 625070 <strncmp@GLIBC_2.2.5>
  400df6:	68 0b 00 00 00       	pushq  $0xb
  400dfb:	e9 30 ff ff ff       	jmpq   400d30 <.plt>

0000000000400e00 <fopen@plt>:
  400e00:	ff 25 72 42 22 00    	jmpq   *0x224272(%rip)        # 625078 <fopen@GLIBC_2.2.5>
  400e06:	68 0c 00 00 00       	pushq  $0xc
  400e0b:	e9 20 ff ff ff       	jmpq   400d30 <.plt>

0000000000400e10 <__libc_start_main@plt>:
  400e10:	ff 25 6a 42 22 00    	jmpq   *0x22426a(%rip)        # 625080 <__libc_start_main@GLIBC_2.2.5>
  400e16:	68 0d 00 00 00       	pushq  $0xd
  400e1b:	e9 10 ff ff ff       	jmpq   400d30 <.plt>

0000000000400e20 <srandom@plt>:
  400e20:	ff 25 62 42 22 00    	jmpq   *0x224262(%rip)        # 625088 <srandom@GLIBC_2.2.5>
  400e26:	68 0e 00 00 00       	pushq  $0xe
  400e2b:	e9 00 ff ff ff       	jmpq   400d30 <.plt>

0000000000400e30 <fgets@plt>:
  400e30:	ff 25 5a 42 22 00    	jmpq   *0x22425a(%rip)        # 625090 <fgets@GLIBC_2.2.5>
  400e36:	68 0f 00 00 00       	pushq  $0xf
  400e3b:	e9 f0 fe ff ff       	jmpq   400d30 <.plt>

0000000000400e40 <_IO_getc@plt>:
  400e40:	ff 25 52 42 22 00    	jmpq   *0x224252(%rip)        # 625098 <_IO_getc@GLIBC_2.2.5>
  400e46:	68 10 00 00 00       	pushq  $0x10
  400e4b:	e9 e0 fe ff ff       	jmpq   400d30 <.plt>

0000000000400e50 <bcopy@plt>:
  400e50:	ff 25 4a 42 22 00    	jmpq   *0x22424a(%rip)        # 6250a0 <bcopy@GLIBC_2.2.5>
  400e56:	68 11 00 00 00       	pushq  $0x11
  400e5b:	e9 d0 fe ff ff       	jmpq   400d30 <.plt>

0000000000400e60 <sprintf@plt>:
  400e60:	ff 25 42 42 22 00    	jmpq   *0x224242(%rip)        # 6250a8 <sprintf@GLIBC_2.2.5>
  400e66:	68 12 00 00 00       	pushq  $0x12
  400e6b:	e9 c0 fe ff ff       	jmpq   400d30 <.plt>

0000000000400e70 <strcat@plt>:
  400e70:	ff 25 3a 42 22 00    	jmpq   *0x22423a(%rip)        # 6250b0 <strcat@GLIBC_2.2.5>
  400e76:	68 13 00 00 00       	pushq  $0x13
  400e7b:	e9 b0 fe ff ff       	jmpq   400d30 <.plt>

0000000000400e80 <strtol@plt>:
  400e80:	ff 25 32 42 22 00    	jmpq   *0x224232(%rip)        # 6250b8 <strtol@GLIBC_2.2.5>
  400e86:	68 14 00 00 00       	pushq  $0x14
  400e8b:	e9 a0 fe ff ff       	jmpq   400d30 <.plt>

0000000000400e90 <connect@plt>:
  400e90:	ff 25 2a 42 22 00    	jmpq   *0x22422a(%rip)        # 6250c0 <connect@GLIBC_2.2.5>
  400e96:	68 15 00 00 00       	pushq  $0x15
  400e9b:	e9 90 fe ff ff       	jmpq   400d30 <.plt>

0000000000400ea0 <gethostname@plt>:
  400ea0:	ff 25 22 42 22 00    	jmpq   *0x224222(%rip)        # 6250c8 <gethostname@GLIBC_2.2.5>
  400ea6:	68 16 00 00 00       	pushq  $0x16
  400eab:	e9 80 fe ff ff       	jmpq   400d30 <.plt>

0000000000400eb0 <signal@plt>:
  400eb0:	ff 25 1a 42 22 00    	jmpq   *0x22421a(%rip)        # 6250d0 <signal@GLIBC_2.2.5>
  400eb6:	68 17 00 00 00       	pushq  $0x17
  400ebb:	e9 70 fe ff ff       	jmpq   400d30 <.plt>

0000000000400ec0 <socket@plt>:
  400ec0:	ff 25 12 42 22 00    	jmpq   *0x224212(%rip)        # 6250d8 <socket@GLIBC_2.2.5>
  400ec6:	68 18 00 00 00       	pushq  $0x18
  400ecb:	e9 60 fe ff ff       	jmpq   400d30 <.plt>

0000000000400ed0 <alarm@plt>:
  400ed0:	ff 25 0a 42 22 00    	jmpq   *0x22420a(%rip)        # 6250e0 <alarm@GLIBC_2.2.5>
  400ed6:	68 19 00 00 00       	pushq  $0x19
  400edb:	e9 50 fe ff ff       	jmpq   400d30 <.plt>

0000000000400ee0 <__errno_location@plt>:
  400ee0:	ff 25 02 42 22 00    	jmpq   *0x224202(%rip)        # 6250e8 <__errno_location@GLIBC_2.2.5>
  400ee6:	68 1a 00 00 00       	pushq  $0x1a
  400eeb:	e9 40 fe ff ff       	jmpq   400d30 <.plt>

0000000000400ef0 <strcmp@plt>:
  400ef0:	ff 25 fa 41 22 00    	jmpq   *0x2241fa(%rip)        # 6250f0 <strcmp@GLIBC_2.2.5>
  400ef6:	68 1b 00 00 00       	pushq  $0x1b
  400efb:	e9 30 fe ff ff       	jmpq   400d30 <.plt>

0000000000400f00 <strcpy@plt>:
  400f00:	ff 25 f2 41 22 00    	jmpq   *0x2241f2(%rip)        # 6250f8 <strcpy@GLIBC_2.2.5>
  400f06:	68 1c 00 00 00       	pushq  $0x1c
  400f0b:	e9 20 fe ff ff       	jmpq   400d30 <.plt>

0000000000400f10 <munmap@plt>:
  400f10:	ff 25 ea 41 22 00    	jmpq   *0x2241ea(%rip)        # 625100 <munmap@GLIBC_2.2.5>
  400f16:	68 1d 00 00 00       	pushq  $0x1d
  400f1b:	e9 10 fe ff ff       	jmpq   400d30 <.plt>

0000000000400f20 <random@plt>:
  400f20:	ff 25 e2 41 22 00    	jmpq   *0x2241e2(%rip)        # 625108 <random@GLIBC_2.2.5>
  400f26:	68 1e 00 00 00       	pushq  $0x1e
  400f2b:	e9 00 fe ff ff       	jmpq   400d30 <.plt>

0000000000400f30 <fprintf@plt>:
  400f30:	ff 25 da 41 22 00    	jmpq   *0x2241da(%rip)        # 625110 <fprintf@GLIBC_2.2.5>
  400f36:	68 1f 00 00 00       	pushq  $0x1f
  400f3b:	e9 f0 fd ff ff       	jmpq   400d30 <.plt>

0000000000400f40 <write@plt>:
  400f40:	ff 25 d2 41 22 00    	jmpq   *0x2241d2(%rip)        # 625118 <write@GLIBC_2.2.5>
  400f46:	68 20 00 00 00       	pushq  $0x20
  400f4b:	e9 e0 fd ff ff       	jmpq   400d30 <.plt>

0000000000400f50 <strtoul@plt>:
  400f50:	ff 25 ca 41 22 00    	jmpq   *0x2241ca(%rip)        # 625120 <strtoul@GLIBC_2.2.5>
  400f56:	68 21 00 00 00       	pushq  $0x21
  400f5b:	e9 d0 fd ff ff       	jmpq   400d30 <.plt>

0000000000400f60 <memcpy@plt>:
  400f60:	ff 25 c2 41 22 00    	jmpq   *0x2241c2(%rip)        # 625128 <memcpy@GLIBC_2.14>
  400f66:	68 22 00 00 00       	pushq  $0x22
  400f6b:	e9 c0 fd ff ff       	jmpq   400d30 <.plt>

0000000000400f70 <mmap@plt>:
  400f70:	ff 25 ba 41 22 00    	jmpq   *0x2241ba(%rip)        # 625130 <mmap@GLIBC_2.2.5>
  400f76:	68 23 00 00 00       	pushq  $0x23
  400f7b:	e9 b0 fd ff ff       	jmpq   400d30 <.plt>

0000000000400f80 <time@plt>:
  400f80:	ff 25 b2 41 22 00    	jmpq   *0x2241b2(%rip)        # 625138 <time@GLIBC_2.2.5>
  400f86:	68 24 00 00 00       	pushq  $0x24
  400f8b:	e9 a0 fd ff ff       	jmpq   400d30 <.plt>

Disassembly of section .plt.got:

0000000000400f90 <.plt.got>:
  400f90:	ff 25 62 40 22 00    	jmpq   *0x224062(%rip)        # 624ff8 <__gmon_start__>
  400f96:	66 90                	xchg   %ax,%ax

Disassembly of section .fini:

0000000000423374 <_fini>:
  423374:	48 83 ec 08          	sub    $0x8,%rsp
  423378:	48 83 c4 08          	add    $0x8,%rsp
  42337c:	c3                   	retq   
